
rtarget:     file format elf64-x86-64


Disassembly of section .init:

0000000000400c48 <_init>:
  400c48:	48 83 ec 08          	sub    $0x8,%rsp
  400c4c:	48 8b 05 a5 43 20 00 	mov    0x2043a5(%rip),%rax        # 604ff8 <__gmon_start__>
  400c53:	48 85 c0             	test   %rax,%rax
  400c56:	74 02                	je     400c5a <_init+0x12>
  400c58:	ff d0                	callq  *%rax
  400c5a:	48 83 c4 08          	add    $0x8,%rsp
  400c5e:	c3                   	retq   

Disassembly of section .plt:

0000000000400c60 <.plt>:
  400c60:	ff 35 a2 43 20 00    	pushq  0x2043a2(%rip)        # 605008 <_GLOBAL_OFFSET_TABLE_+0x8>
  400c66:	ff 25 a4 43 20 00    	jmpq   *0x2043a4(%rip)        # 605010 <_GLOBAL_OFFSET_TABLE_+0x10>
  400c6c:	0f 1f 40 00          	nopl   0x0(%rax)

0000000000400c70 <strcasecmp@plt>:
  400c70:	ff 25 a2 43 20 00    	jmpq   *0x2043a2(%rip)        # 605018 <strcasecmp@GLIBC_2.2.5>
  400c76:	68 00 00 00 00       	pushq  $0x0
  400c7b:	e9 e0 ff ff ff       	jmpq   400c60 <.plt>

0000000000400c80 <__errno_location@plt>:
  400c80:	ff 25 9a 43 20 00    	jmpq   *0x20439a(%rip)        # 605020 <__errno_location@GLIBC_2.2.5>
  400c86:	68 01 00 00 00       	pushq  $0x1
  400c8b:	e9 d0 ff ff ff       	jmpq   400c60 <.plt>

0000000000400c90 <srandom@plt>:
  400c90:	ff 25 92 43 20 00    	jmpq   *0x204392(%rip)        # 605028 <srandom@GLIBC_2.2.5>
  400c96:	68 02 00 00 00       	pushq  $0x2
  400c9b:	e9 c0 ff ff ff       	jmpq   400c60 <.plt>

0000000000400ca0 <strncmp@plt>:
  400ca0:	ff 25 8a 43 20 00    	jmpq   *0x20438a(%rip)        # 605030 <strncmp@GLIBC_2.2.5>
  400ca6:	68 03 00 00 00       	pushq  $0x3
  400cab:	e9 b0 ff ff ff       	jmpq   400c60 <.plt>

0000000000400cb0 <strcpy@plt>:
  400cb0:	ff 25 82 43 20 00    	jmpq   *0x204382(%rip)        # 605038 <strcpy@GLIBC_2.2.5>
  400cb6:	68 04 00 00 00       	pushq  $0x4
  400cbb:	e9 a0 ff ff ff       	jmpq   400c60 <.plt>

0000000000400cc0 <puts@plt>:
  400cc0:	ff 25 7a 43 20 00    	jmpq   *0x20437a(%rip)        # 605040 <puts@GLIBC_2.2.5>
  400cc6:	68 05 00 00 00       	pushq  $0x5
  400ccb:	e9 90 ff ff ff       	jmpq   400c60 <.plt>

0000000000400cd0 <write@plt>:
  400cd0:	ff 25 72 43 20 00    	jmpq   *0x204372(%rip)        # 605048 <write@GLIBC_2.2.5>
  400cd6:	68 06 00 00 00       	pushq  $0x6
  400cdb:	e9 80 ff ff ff       	jmpq   400c60 <.plt>

0000000000400ce0 <__stack_chk_fail@plt>:
  400ce0:	ff 25 6a 43 20 00    	jmpq   *0x20436a(%rip)        # 605050 <__stack_chk_fail@GLIBC_2.4>
  400ce6:	68 07 00 00 00       	pushq  $0x7
  400ceb:	e9 70 ff ff ff       	jmpq   400c60 <.plt>

0000000000400cf0 <mmap@plt>:
  400cf0:	ff 25 62 43 20 00    	jmpq   *0x204362(%rip)        # 605058 <mmap@GLIBC_2.2.5>
  400cf6:	68 08 00 00 00       	pushq  $0x8
  400cfb:	e9 60 ff ff ff       	jmpq   400c60 <.plt>

0000000000400d00 <memset@plt>:
  400d00:	ff 25 5a 43 20 00    	jmpq   *0x20435a(%rip)        # 605060 <memset@GLIBC_2.2.5>
  400d06:	68 09 00 00 00       	pushq  $0x9
  400d0b:	e9 50 ff ff ff       	jmpq   400c60 <.plt>

0000000000400d10 <alarm@plt>:
  400d10:	ff 25 52 43 20 00    	jmpq   *0x204352(%rip)        # 605068 <alarm@GLIBC_2.2.5>
  400d16:	68 0a 00 00 00       	pushq  $0xa
  400d1b:	e9 40 ff ff ff       	jmpq   400c60 <.plt>

0000000000400d20 <close@plt>:
  400d20:	ff 25 4a 43 20 00    	jmpq   *0x20434a(%rip)        # 605070 <close@GLIBC_2.2.5>
  400d26:	68 0b 00 00 00       	pushq  $0xb
  400d2b:	e9 30 ff ff ff       	jmpq   400c60 <.plt>

0000000000400d30 <read@plt>:
  400d30:	ff 25 42 43 20 00    	jmpq   *0x204342(%rip)        # 605078 <read@GLIBC_2.2.5>
  400d36:	68 0c 00 00 00       	pushq  $0xc
  400d3b:	e9 20 ff ff ff       	jmpq   400c60 <.plt>

0000000000400d40 <signal@plt>:
  400d40:	ff 25 3a 43 20 00    	jmpq   *0x20433a(%rip)        # 605080 <signal@GLIBC_2.2.5>
  400d46:	68 0d 00 00 00       	pushq  $0xd
  400d4b:	e9 10 ff ff ff       	jmpq   400c60 <.plt>

0000000000400d50 <gethostbyname@plt>:
  400d50:	ff 25 32 43 20 00    	jmpq   *0x204332(%rip)        # 605088 <gethostbyname@GLIBC_2.2.5>
  400d56:	68 0e 00 00 00       	pushq  $0xe
  400d5b:	e9 00 ff ff ff       	jmpq   400c60 <.plt>

0000000000400d60 <__memmove_chk@plt>:
  400d60:	ff 25 2a 43 20 00    	jmpq   *0x20432a(%rip)        # 605090 <__memmove_chk@GLIBC_2.3.4>
  400d66:	68 0f 00 00 00       	pushq  $0xf
  400d6b:	e9 f0 fe ff ff       	jmpq   400c60 <.plt>

0000000000400d70 <strtol@plt>:
  400d70:	ff 25 22 43 20 00    	jmpq   *0x204322(%rip)        # 605098 <strtol@GLIBC_2.2.5>
  400d76:	68 10 00 00 00       	pushq  $0x10
  400d7b:	e9 e0 fe ff ff       	jmpq   400c60 <.plt>

0000000000400d80 <memcpy@plt>:
  400d80:	ff 25 1a 43 20 00    	jmpq   *0x20431a(%rip)        # 6050a0 <memcpy@GLIBC_2.14>
  400d86:	68 11 00 00 00       	pushq  $0x11
  400d8b:	e9 d0 fe ff ff       	jmpq   400c60 <.plt>

0000000000400d90 <time@plt>:
  400d90:	ff 25 12 43 20 00    	jmpq   *0x204312(%rip)        # 6050a8 <time@GLIBC_2.2.5>
  400d96:	68 12 00 00 00       	pushq  $0x12
  400d9b:	e9 c0 fe ff ff       	jmpq   400c60 <.plt>

0000000000400da0 <random@plt>:
  400da0:	ff 25 0a 43 20 00    	jmpq   *0x20430a(%rip)        # 6050b0 <random@GLIBC_2.2.5>
  400da6:	68 13 00 00 00       	pushq  $0x13
  400dab:	e9 b0 fe ff ff       	jmpq   400c60 <.plt>

0000000000400db0 <_IO_getc@plt>:
  400db0:	ff 25 02 43 20 00    	jmpq   *0x204302(%rip)        # 6050b8 <_IO_getc@GLIBC_2.2.5>
  400db6:	68 14 00 00 00       	pushq  $0x14
  400dbb:	e9 a0 fe ff ff       	jmpq   400c60 <.plt>

0000000000400dc0 <__isoc99_sscanf@plt>:
  400dc0:	ff 25 fa 42 20 00    	jmpq   *0x2042fa(%rip)        # 6050c0 <__isoc99_sscanf@GLIBC_2.7>
  400dc6:	68 15 00 00 00       	pushq  $0x15
  400dcb:	e9 90 fe ff ff       	jmpq   400c60 <.plt>

0000000000400dd0 <munmap@plt>:
  400dd0:	ff 25 f2 42 20 00    	jmpq   *0x2042f2(%rip)        # 6050c8 <munmap@GLIBC_2.2.5>
  400dd6:	68 16 00 00 00       	pushq  $0x16
  400ddb:	e9 80 fe ff ff       	jmpq   400c60 <.plt>

0000000000400de0 <__printf_chk@plt>:
  400de0:	ff 25 ea 42 20 00    	jmpq   *0x2042ea(%rip)        # 6050d0 <__printf_chk@GLIBC_2.3.4>
  400de6:	68 17 00 00 00       	pushq  $0x17
  400deb:	e9 70 fe ff ff       	jmpq   400c60 <.plt>

0000000000400df0 <fopen@plt>:
  400df0:	ff 25 e2 42 20 00    	jmpq   *0x2042e2(%rip)        # 6050d8 <fopen@GLIBC_2.2.5>
  400df6:	68 18 00 00 00       	pushq  $0x18
  400dfb:	e9 60 fe ff ff       	jmpq   400c60 <.plt>

0000000000400e00 <getopt@plt>:
  400e00:	ff 25 da 42 20 00    	jmpq   *0x2042da(%rip)        # 6050e0 <getopt@GLIBC_2.2.5>
  400e06:	68 19 00 00 00       	pushq  $0x19
  400e0b:	e9 50 fe ff ff       	jmpq   400c60 <.plt>

0000000000400e10 <strtoul@plt>:
  400e10:	ff 25 d2 42 20 00    	jmpq   *0x2042d2(%rip)        # 6050e8 <strtoul@GLIBC_2.2.5>
  400e16:	68 1a 00 00 00       	pushq  $0x1a
  400e1b:	e9 40 fe ff ff       	jmpq   400c60 <.plt>

0000000000400e20 <gethostname@plt>:
  400e20:	ff 25 ca 42 20 00    	jmpq   *0x2042ca(%rip)        # 6050f0 <gethostname@GLIBC_2.2.5>
  400e26:	68 1b 00 00 00       	pushq  $0x1b
  400e2b:	e9 30 fe ff ff       	jmpq   400c60 <.plt>

0000000000400e30 <exit@plt>:
  400e30:	ff 25 c2 42 20 00    	jmpq   *0x2042c2(%rip)        # 6050f8 <exit@GLIBC_2.2.5>
  400e36:	68 1c 00 00 00       	pushq  $0x1c
  400e3b:	e9 20 fe ff ff       	jmpq   400c60 <.plt>

0000000000400e40 <connect@plt>:
  400e40:	ff 25 ba 42 20 00    	jmpq   *0x2042ba(%rip)        # 605100 <connect@GLIBC_2.2.5>
  400e46:	68 1d 00 00 00       	pushq  $0x1d
  400e4b:	e9 10 fe ff ff       	jmpq   400c60 <.plt>

0000000000400e50 <__fprintf_chk@plt>:
  400e50:	ff 25 b2 42 20 00    	jmpq   *0x2042b2(%rip)        # 605108 <__fprintf_chk@GLIBC_2.3.4>
  400e56:	68 1e 00 00 00       	pushq  $0x1e
  400e5b:	e9 00 fe ff ff       	jmpq   400c60 <.plt>

0000000000400e60 <__sprintf_chk@plt>:
  400e60:	ff 25 aa 42 20 00    	jmpq   *0x2042aa(%rip)        # 605110 <__sprintf_chk@GLIBC_2.3.4>
  400e66:	68 1f 00 00 00       	pushq  $0x1f
  400e6b:	e9 f0 fd ff ff       	jmpq   400c60 <.plt>

0000000000400e70 <socket@plt>:
  400e70:	ff 25 a2 42 20 00    	jmpq   *0x2042a2(%rip)        # 605118 <socket@GLIBC_2.2.5>
  400e76:	68 20 00 00 00       	pushq  $0x20
  400e7b:	e9 e0 fd ff ff       	jmpq   400c60 <.plt>

Disassembly of section .text:

0000000000400e80 <_start>:
  400e80:	31 ed                	xor    %ebp,%ebp
  400e82:	49 89 d1             	mov    %rdx,%r9
  400e85:	5e                   	pop    %rsi
  400e86:	48 89 e2             	mov    %rsp,%rdx
  400e89:	48 83 e4 f0          	and    $0xfffffffffffffff0,%rsp
  400e8d:	50                   	push   %rax
  400e8e:	54                   	push   %rsp
  400e8f:	49 c7 c0 b0 2f 40 00 	mov    $0x402fb0,%r8
  400e96:	48 c7 c1 40 2f 40 00 	mov    $0x402f40,%rcx
  400e9d:	48 c7 c7 60 11 40 00 	mov    $0x401160,%rdi
  400ea4:	ff 15 46 41 20 00    	callq  *0x204146(%rip)        # 604ff0 <__libc_start_main@GLIBC_2.2.5>
  400eaa:	f4                   	hlt    
  400eab:	0f 1f 44 00 00       	nopl   0x0(%rax,%rax,1)

0000000000400eb0 <_dl_relocate_static_pie>:
  400eb0:	f3 c3                	repz retq 
  400eb2:	66 2e 0f 1f 84 00 00 	nopw   %cs:0x0(%rax,%rax,1)
  400eb9:	00 00 00 
  400ebc:	0f 1f 40 00          	nopl   0x0(%rax)

0000000000400ec0 <deregister_tm_clones>:
  400ec0:	55                   	push   %rbp
  400ec1:	b8 90 54 60 00       	mov    $0x605490,%eax
  400ec6:	48 3d 90 54 60 00    	cmp    $0x605490,%rax
  400ecc:	48 89 e5             	mov    %rsp,%rbp
  400ecf:	74 17                	je     400ee8 <deregister_tm_clones+0x28>
  400ed1:	b8 00 00 00 00       	mov    $0x0,%eax
  400ed6:	48 85 c0             	test   %rax,%rax
  400ed9:	74 0d                	je     400ee8 <deregister_tm_clones+0x28>
  400edb:	5d                   	pop    %rbp
  400edc:	bf 90 54 60 00       	mov    $0x605490,%edi
  400ee1:	ff e0                	jmpq   *%rax
  400ee3:	0f 1f 44 00 00       	nopl   0x0(%rax,%rax,1)
  400ee8:	5d                   	pop    %rbp
  400ee9:	c3                   	retq   
  400eea:	66 0f 1f 44 00 00    	nopw   0x0(%rax,%rax,1)

0000000000400ef0 <register_tm_clones>:
  400ef0:	be 90 54 60 00       	mov    $0x605490,%esi
  400ef5:	55                   	push   %rbp
  400ef6:	48 81 ee 90 54 60 00 	sub    $0x605490,%rsi
  400efd:	48 89 e5             	mov    %rsp,%rbp
  400f00:	48 c1 fe 03          	sar    $0x3,%rsi
  400f04:	48 89 f0             	mov    %rsi,%rax
  400f07:	48 c1 e8 3f          	shr    $0x3f,%rax
  400f0b:	48 01 c6             	add    %rax,%rsi
  400f0e:	48 d1 fe             	sar    %rsi
  400f11:	74 15                	je     400f28 <register_tm_clones+0x38>
  400f13:	b8 00 00 00 00       	mov    $0x0,%eax
  400f18:	48 85 c0             	test   %rax,%rax
  400f1b:	74 0b                	je     400f28 <register_tm_clones+0x38>
  400f1d:	5d                   	pop    %rbp
  400f1e:	bf 90 54 60 00       	mov    $0x605490,%edi
  400f23:	ff e0                	jmpq   *%rax
  400f25:	0f 1f 00             	nopl   (%rax)
  400f28:	5d                   	pop    %rbp
  400f29:	c3                   	retq   
  400f2a:	66 0f 1f 44 00 00    	nopw   0x0(%rax,%rax,1)

0000000000400f30 <__do_global_dtors_aux>:
  400f30:	80 3d 91 45 20 00 00 	cmpb   $0x0,0x204591(%rip)        # 6054c8 <completed.7697>
  400f37:	75 17                	jne    400f50 <__do_global_dtors_aux+0x20>
  400f39:	55                   	push   %rbp
  400f3a:	48 89 e5             	mov    %rsp,%rbp
  400f3d:	e8 7e ff ff ff       	callq  400ec0 <deregister_tm_clones>
  400f42:	c6 05 7f 45 20 00 01 	movb   $0x1,0x20457f(%rip)        # 6054c8 <completed.7697>
  400f49:	5d                   	pop    %rbp
  400f4a:	c3                   	retq   
  400f4b:	0f 1f 44 00 00       	nopl   0x0(%rax,%rax,1)
  400f50:	f3 c3                	repz retq 
  400f52:	0f 1f 40 00          	nopl   0x0(%rax)
  400f56:	66 2e 0f 1f 84 00 00 	nopw   %cs:0x0(%rax,%rax,1)
  400f5d:	00 00 00 

0000000000400f60 <frame_dummy>:
  400f60:	55                   	push   %rbp
  400f61:	48 89 e5             	mov    %rsp,%rbp
  400f64:	5d                   	pop    %rbp
  400f65:	eb 89                	jmp    400ef0 <register_tm_clones>

0000000000400f67 <usage>:
  400f67:	48 83 ec 08          	sub    $0x8,%rsp
  400f6b:	48 89 fa             	mov    %rdi,%rdx
  400f6e:	83 3d 93 45 20 00 00 	cmpl   $0x0,0x204593(%rip)        # 605508 <is_checker>
  400f75:	74 50                	je     400fc7 <usage+0x60>
  400f77:	48 8d 35 4a 20 00 00 	lea    0x204a(%rip),%rsi        # 402fc8 <_IO_stdin_used+0x8>
  400f7e:	bf 01 00 00 00       	mov    $0x1,%edi
  400f83:	b8 00 00 00 00       	mov    $0x0,%eax
  400f88:	e8 53 fe ff ff       	callq  400de0 <__printf_chk@plt>
  400f8d:	48 8d 3d 6c 20 00 00 	lea    0x206c(%rip),%rdi        # 403000 <_IO_stdin_used+0x40>
  400f94:	e8 27 fd ff ff       	callq  400cc0 <puts@plt>
  400f99:	48 8d 3d 98 21 00 00 	lea    0x2198(%rip),%rdi        # 403138 <_IO_stdin_used+0x178>
  400fa0:	e8 1b fd ff ff       	callq  400cc0 <puts@plt>
  400fa5:	48 8d 3d 7c 20 00 00 	lea    0x207c(%rip),%rdi        # 403028 <_IO_stdin_used+0x68>
  400fac:	e8 0f fd ff ff       	callq  400cc0 <puts@plt>
  400fb1:	48 8d 3d 9a 21 00 00 	lea    0x219a(%rip),%rdi        # 403152 <_IO_stdin_used+0x192>
  400fb8:	e8 03 fd ff ff       	callq  400cc0 <puts@plt>
  400fbd:	bf 00 00 00 00       	mov    $0x0,%edi
  400fc2:	e8 69 fe ff ff       	callq  400e30 <exit@plt>
  400fc7:	48 8d 35 a0 21 00 00 	lea    0x21a0(%rip),%rsi        # 40316e <_IO_stdin_used+0x1ae>
  400fce:	bf 01 00 00 00       	mov    $0x1,%edi
  400fd3:	b8 00 00 00 00       	mov    $0x0,%eax
  400fd8:	e8 03 fe ff ff       	callq  400de0 <__printf_chk@plt>
  400fdd:	48 8d 3d 6c 20 00 00 	lea    0x206c(%rip),%rdi        # 403050 <_IO_stdin_used+0x90>
  400fe4:	e8 d7 fc ff ff       	callq  400cc0 <puts@plt>
  400fe9:	48 8d 3d 88 20 00 00 	lea    0x2088(%rip),%rdi        # 403078 <_IO_stdin_used+0xb8>
  400ff0:	e8 cb fc ff ff       	callq  400cc0 <puts@plt>
  400ff5:	48 8d 3d 90 21 00 00 	lea    0x2190(%rip),%rdi        # 40318c <_IO_stdin_used+0x1cc>
  400ffc:	e8 bf fc ff ff       	callq  400cc0 <puts@plt>
  401001:	eb ba                	jmp    400fbd <usage+0x56>

0000000000401003 <initialize_target>:
  401003:	55                   	push   %rbp
  401004:	53                   	push   %rbx
  401005:	48 81 ec 18 21 00 00 	sub    $0x2118,%rsp
  40100c:	89 f5                	mov    %esi,%ebp
  40100e:	64 48 8b 04 25 28 00 	mov    %fs:0x28,%rax
  401015:	00 00 
  401017:	48 89 84 24 08 21 00 	mov    %rax,0x2108(%rsp)
  40101e:	00 
  40101f:	31 c0                	xor    %eax,%eax
  401021:	89 3d d1 44 20 00    	mov    %edi,0x2044d1(%rip)        # 6054f8 <check_level>
  401027:	8b 3d 03 41 20 00    	mov    0x204103(%rip),%edi        # 605130 <target_id>
  40102d:	e8 e6 1e 00 00       	callq  402f18 <gencookie>
  401032:	89 05 cc 44 20 00    	mov    %eax,0x2044cc(%rip)        # 605504 <cookie>
  401038:	89 c7                	mov    %eax,%edi
  40103a:	e8 d9 1e 00 00       	callq  402f18 <gencookie>
  40103f:	89 05 bb 44 20 00    	mov    %eax,0x2044bb(%rip)        # 605500 <authkey>
  401045:	8b 05 e5 40 20 00    	mov    0x2040e5(%rip),%eax        # 605130 <target_id>
  40104b:	8d 78 01             	lea    0x1(%rax),%edi
  40104e:	e8 3d fc ff ff       	callq  400c90 <srandom@plt>
  401053:	e8 48 fd ff ff       	callq  400da0 <random@plt>
  401058:	89 c7                	mov    %eax,%edi
  40105a:	e8 ec 02 00 00       	callq  40134b <scramble>
  40105f:	89 c3                	mov    %eax,%ebx
  401061:	85 ed                	test   %ebp,%ebp
  401063:	75 54                	jne    4010b9 <initialize_target+0xb6>
  401065:	b8 00 00 00 00       	mov    $0x0,%eax
  40106a:	01 d8                	add    %ebx,%eax
  40106c:	0f b7 c0             	movzwl %ax,%eax
  40106f:	8d 04 c5 00 01 00 00 	lea    0x100(,%rax,8),%eax
  401076:	89 c0                	mov    %eax,%eax
  401078:	48 89 05 01 44 20 00 	mov    %rax,0x204401(%rip)        # 605480 <buf_offset>
  40107f:	c6 05 a2 50 20 00 72 	movb   $0x72,0x2050a2(%rip)        # 606128 <target_prefix>
  401086:	83 3d fb 43 20 00 00 	cmpl   $0x0,0x2043fb(%rip)        # 605488 <notify>
  40108d:	74 09                	je     401098 <initialize_target+0x95>
  40108f:	83 3d 72 44 20 00 00 	cmpl   $0x0,0x204472(%rip)        # 605508 <is_checker>
  401096:	74 39                	je     4010d1 <initialize_target+0xce>
  401098:	48 8b 84 24 08 21 00 	mov    0x2108(%rsp),%rax
  40109f:	00 
  4010a0:	64 48 33 04 25 28 00 	xor    %fs:0x28,%rax
  4010a7:	00 00 
  4010a9:	0f 85 ac 00 00 00    	jne    40115b <initialize_target+0x158>
  4010af:	48 81 c4 18 21 00 00 	add    $0x2118,%rsp
  4010b6:	5b                   	pop    %rbx
  4010b7:	5d                   	pop    %rbp
  4010b8:	c3                   	retq   
  4010b9:	bf 00 00 00 00       	mov    $0x0,%edi
  4010be:	e8 cd fc ff ff       	callq  400d90 <time@plt>
  4010c3:	89 c7                	mov    %eax,%edi
  4010c5:	e8 c6 fb ff ff       	callq  400c90 <srandom@plt>
  4010ca:	e8 d1 fc ff ff       	callq  400da0 <random@plt>
  4010cf:	eb 99                	jmp    40106a <initialize_target+0x67>
  4010d1:	48 89 e7             	mov    %rsp,%rdi
  4010d4:	be 00 01 00 00       	mov    $0x100,%esi
  4010d9:	e8 42 fd ff ff       	callq  400e20 <gethostname@plt>
  4010de:	89 c3                	mov    %eax,%ebx
  4010e0:	85 c0                	test   %eax,%eax
  4010e2:	75 24                	jne    401108 <initialize_target+0x105>
  4010e4:	48 63 c3             	movslq %ebx,%rax
  4010e7:	48 8d 15 72 40 20 00 	lea    0x204072(%rip),%rdx        # 605160 <host_table>
  4010ee:	48 8b 3c c2          	mov    (%rdx,%rax,8),%rdi
  4010f2:	48 85 ff             	test   %rdi,%rdi
  4010f5:	74 27                	je     40111e <initialize_target+0x11b>
  4010f7:	48 89 e6             	mov    %rsp,%rsi
  4010fa:	e8 71 fb ff ff       	callq  400c70 <strcasecmp@plt>
  4010ff:	85 c0                	test   %eax,%eax
  401101:	74 1b                	je     40111e <initialize_target+0x11b>
  401103:	83 c3 01             	add    $0x1,%ebx
  401106:	eb dc                	jmp    4010e4 <initialize_target+0xe1>
  401108:	48 8d 3d 99 1f 00 00 	lea    0x1f99(%rip),%rdi        # 4030a8 <_IO_stdin_used+0xe8>
  40110f:	e8 ac fb ff ff       	callq  400cc0 <puts@plt>
  401114:	bf 08 00 00 00       	mov    $0x8,%edi
  401119:	e8 12 fd ff ff       	callq  400e30 <exit@plt>
  40111e:	48 8d bc 24 00 01 00 	lea    0x100(%rsp),%rdi
  401125:	00 
  401126:	e8 1d 1b 00 00       	callq  402c48 <init_driver>
  40112b:	85 c0                	test   %eax,%eax
  40112d:	0f 89 65 ff ff ff    	jns    401098 <initialize_target+0x95>
  401133:	48 8d 94 24 00 01 00 	lea    0x100(%rsp),%rdx
  40113a:	00 
  40113b:	48 8d 35 9e 1f 00 00 	lea    0x1f9e(%rip),%rsi        # 4030e0 <_IO_stdin_used+0x120>
  401142:	bf 01 00 00 00       	mov    $0x1,%edi
  401147:	b8 00 00 00 00       	mov    $0x0,%eax
  40114c:	e8 8f fc ff ff       	callq  400de0 <__printf_chk@plt>
  401151:	bf 08 00 00 00       	mov    $0x8,%edi
  401156:	e8 d5 fc ff ff       	callq  400e30 <exit@plt>
  40115b:	e8 80 fb ff ff       	callq  400ce0 <__stack_chk_fail@plt>

0000000000401160 <main>:
  401160:	41 56                	push   %r14
  401162:	41 55                	push   %r13
  401164:	41 54                	push   %r12
  401166:	55                   	push   %rbp
  401167:	53                   	push   %rbx
  401168:	41 89 fc             	mov    %edi,%r12d
  40116b:	48 89 f3             	mov    %rsi,%rbx
  40116e:	48 c7 c6 4f 1f 40 00 	mov    $0x401f4f,%rsi
  401175:	bf 0b 00 00 00       	mov    $0xb,%edi
  40117a:	e8 c1 fb ff ff       	callq  400d40 <signal@plt>
  40117f:	48 c7 c6 fb 1e 40 00 	mov    $0x401efb,%rsi
  401186:	bf 07 00 00 00       	mov    $0x7,%edi
  40118b:	e8 b0 fb ff ff       	callq  400d40 <signal@plt>
  401190:	48 c7 c6 a3 1f 40 00 	mov    $0x401fa3,%rsi
  401197:	bf 04 00 00 00       	mov    $0x4,%edi
  40119c:	e8 9f fb ff ff       	callq  400d40 <signal@plt>
  4011a1:	83 3d 60 43 20 00 00 	cmpl   $0x0,0x204360(%rip)        # 605508 <is_checker>
  4011a8:	75 26                	jne    4011d0 <main+0x70>
  4011aa:	48 8d 2d f4 1f 00 00 	lea    0x1ff4(%rip),%rbp        # 4031a5 <_IO_stdin_used+0x1e5>
  4011b1:	48 8b 05 e8 42 20 00 	mov    0x2042e8(%rip),%rax        # 6054a0 <stdin@@GLIBC_2.2.5>
  4011b8:	48 89 05 31 43 20 00 	mov    %rax,0x204331(%rip)        # 6054f0 <infile>
  4011bf:	41 bd 00 00 00 00    	mov    $0x0,%r13d
  4011c5:	41 be 00 00 00 00    	mov    $0x0,%r14d
  4011cb:	e9 8d 00 00 00       	jmpq   40125d <main+0xfd>
  4011d0:	48 c7 c6 f7 1f 40 00 	mov    $0x401ff7,%rsi
  4011d7:	bf 0e 00 00 00       	mov    $0xe,%edi
  4011dc:	e8 5f fb ff ff       	callq  400d40 <signal@plt>
  4011e1:	bf 05 00 00 00       	mov    $0x5,%edi
  4011e6:	e8 25 fb ff ff       	callq  400d10 <alarm@plt>
  4011eb:	48 8d 2d b8 1f 00 00 	lea    0x1fb8(%rip),%rbp        # 4031aa <_IO_stdin_used+0x1ea>
  4011f2:	eb bd                	jmp    4011b1 <main+0x51>
  4011f4:	48 8b 3b             	mov    (%rbx),%rdi
  4011f7:	e8 6b fd ff ff       	callq  400f67 <usage>
  4011fc:	48 8d 35 3c 22 00 00 	lea    0x223c(%rip),%rsi        # 40343f <_IO_stdin_used+0x47f>
  401203:	48 8b 3d 9e 42 20 00 	mov    0x20429e(%rip),%rdi        # 6054a8 <optarg@@GLIBC_2.2.5>
  40120a:	e8 e1 fb ff ff       	callq  400df0 <fopen@plt>
  40120f:	48 89 05 da 42 20 00 	mov    %rax,0x2042da(%rip)        # 6054f0 <infile>
  401216:	48 85 c0             	test   %rax,%rax
  401219:	75 42                	jne    40125d <main+0xfd>
  40121b:	48 8b 0d 86 42 20 00 	mov    0x204286(%rip),%rcx        # 6054a8 <optarg@@GLIBC_2.2.5>
  401222:	48 8d 15 89 1f 00 00 	lea    0x1f89(%rip),%rdx        # 4031b2 <_IO_stdin_used+0x1f2>
  401229:	be 01 00 00 00       	mov    $0x1,%esi
  40122e:	48 8b 3d 8b 42 20 00 	mov    0x20428b(%rip),%rdi        # 6054c0 <stderr@@GLIBC_2.2.5>
  401235:	e8 16 fc ff ff       	callq  400e50 <__fprintf_chk@plt>
  40123a:	b8 01 00 00 00       	mov    $0x1,%eax
  40123f:	e9 d9 00 00 00       	jmpq   40131d <main+0x1bd>
  401244:	ba 10 00 00 00       	mov    $0x10,%edx
  401249:	be 00 00 00 00       	mov    $0x0,%esi
  40124e:	48 8b 3d 53 42 20 00 	mov    0x204253(%rip),%rdi        # 6054a8 <optarg@@GLIBC_2.2.5>
  401255:	e8 b6 fb ff ff       	callq  400e10 <strtoul@plt>
  40125a:	41 89 c6             	mov    %eax,%r14d
  40125d:	48 89 ea             	mov    %rbp,%rdx
  401260:	48 89 de             	mov    %rbx,%rsi
  401263:	44 89 e7             	mov    %r12d,%edi
  401266:	e8 95 fb ff ff       	callq  400e00 <getopt@plt>
  40126b:	3c ff                	cmp    $0xff,%al
  40126d:	74 62                	je     4012d1 <main+0x171>
  40126f:	0f be d0             	movsbl %al,%edx
  401272:	83 e8 61             	sub    $0x61,%eax
  401275:	3c 10                	cmp    $0x10,%al
  401277:	77 3a                	ja     4012b3 <main+0x153>
  401279:	0f b6 c0             	movzbl %al,%eax
  40127c:	48 8d 0d 6d 1f 00 00 	lea    0x1f6d(%rip),%rcx        # 4031f0 <_IO_stdin_used+0x230>
  401283:	48 63 04 81          	movslq (%rcx,%rax,4),%rax
  401287:	48 01 c8             	add    %rcx,%rax
  40128a:	ff e0                	jmpq   *%rax
  40128c:	ba 0a 00 00 00       	mov    $0xa,%edx
  401291:	be 00 00 00 00       	mov    $0x0,%esi
  401296:	48 8b 3d 0b 42 20 00 	mov    0x20420b(%rip),%rdi        # 6054a8 <optarg@@GLIBC_2.2.5>
  40129d:	e8 ce fa ff ff       	callq  400d70 <strtol@plt>
  4012a2:	41 89 c5             	mov    %eax,%r13d
  4012a5:	eb b6                	jmp    40125d <main+0xfd>
  4012a7:	c7 05 d7 41 20 00 00 	movl   $0x0,0x2041d7(%rip)        # 605488 <notify>
  4012ae:	00 00 00 
  4012b1:	eb aa                	jmp    40125d <main+0xfd>
  4012b3:	48 8d 35 15 1f 00 00 	lea    0x1f15(%rip),%rsi        # 4031cf <_IO_stdin_used+0x20f>
  4012ba:	bf 01 00 00 00       	mov    $0x1,%edi
  4012bf:	b8 00 00 00 00       	mov    $0x0,%eax
  4012c4:	e8 17 fb ff ff       	callq  400de0 <__printf_chk@plt>
  4012c9:	48 8b 3b             	mov    (%rbx),%rdi
  4012cc:	e8 96 fc ff ff       	callq  400f67 <usage>
  4012d1:	be 01 00 00 00       	mov    $0x1,%esi
  4012d6:	44 89 ef             	mov    %r13d,%edi
  4012d9:	e8 25 fd ff ff       	callq  401003 <initialize_target>
  4012de:	83 3d 23 42 20 00 00 	cmpl   $0x0,0x204223(%rip)        # 605508 <is_checker>
  4012e5:	74 09                	je     4012f0 <main+0x190>
  4012e7:	44 39 35 12 42 20 00 	cmp    %r14d,0x204212(%rip)        # 605500 <authkey>
  4012ee:	75 36                	jne    401326 <main+0x1c6>
  4012f0:	8b 15 0e 42 20 00    	mov    0x20420e(%rip),%edx        # 605504 <cookie>
  4012f6:	48 8d 35 e5 1e 00 00 	lea    0x1ee5(%rip),%rsi        # 4031e2 <_IO_stdin_used+0x222>
  4012fd:	bf 01 00 00 00       	mov    $0x1,%edi
  401302:	b8 00 00 00 00       	mov    $0x0,%eax
  401307:	e8 d4 fa ff ff       	callq  400de0 <__printf_chk@plt>
  40130c:	48 8b 3d 6d 41 20 00 	mov    0x20416d(%rip),%rdi        # 605480 <buf_offset>
  401313:	e8 36 0d 00 00       	callq  40204e <launch>
  401318:	b8 00 00 00 00       	mov    $0x0,%eax
  40131d:	5b                   	pop    %rbx
  40131e:	5d                   	pop    %rbp
  40131f:	41 5c                	pop    %r12
  401321:	41 5d                	pop    %r13
  401323:	41 5e                	pop    %r14
  401325:	c3                   	retq   
  401326:	44 89 f2             	mov    %r14d,%edx
  401329:	48 8d 35 d8 1d 00 00 	lea    0x1dd8(%rip),%rsi        # 403108 <_IO_stdin_used+0x148>
  401330:	bf 01 00 00 00       	mov    $0x1,%edi
  401335:	b8 00 00 00 00       	mov    $0x0,%eax
  40133a:	e8 a1 fa ff ff       	callq  400de0 <__printf_chk@plt>
  40133f:	b8 00 00 00 00       	mov    $0x0,%eax
  401344:	e8 12 08 00 00       	callq  401b5b <check_fail>
  401349:	eb a5                	jmp    4012f0 <main+0x190>

000000000040134b <scramble>:
  40134b:	48 83 ec 38          	sub    $0x38,%rsp
  40134f:	64 48 8b 04 25 28 00 	mov    %fs:0x28,%rax
  401356:	00 00 
  401358:	48 89 44 24 28       	mov    %rax,0x28(%rsp)
  40135d:	31 c0                	xor    %eax,%eax
  40135f:	eb 10                	jmp    401371 <scramble+0x26>
  401361:	69 d0 5d 65 00 00    	imul   $0x655d,%eax,%edx
  401367:	01 fa                	add    %edi,%edx
  401369:	89 c1                	mov    %eax,%ecx
  40136b:	89 14 8c             	mov    %edx,(%rsp,%rcx,4)
  40136e:	83 c0 01             	add    $0x1,%eax
  401371:	83 f8 09             	cmp    $0x9,%eax
  401374:	76 eb                	jbe    401361 <scramble+0x16>
  401376:	8b 44 24 0c          	mov    0xc(%rsp),%eax
  40137a:	69 c0 56 4b 00 00    	imul   $0x4b56,%eax,%eax
  401380:	89 44 24 0c          	mov    %eax,0xc(%rsp)
  401384:	8b 44 24 20          	mov    0x20(%rsp),%eax
  401388:	69 c0 7a a3 00 00    	imul   $0xa37a,%eax,%eax
  40138e:	89 44 24 20          	mov    %eax,0x20(%rsp)
  401392:	8b 44 24 24          	mov    0x24(%rsp),%eax
  401396:	69 c0 51 b8 00 00    	imul   $0xb851,%eax,%eax
  40139c:	89 44 24 24          	mov    %eax,0x24(%rsp)
  4013a0:	8b 44 24 18          	mov    0x18(%rsp),%eax
  4013a4:	69 c0 fb 5a 00 00    	imul   $0x5afb,%eax,%eax
  4013aa:	89 44 24 18          	mov    %eax,0x18(%rsp)
  4013ae:	8b 44 24 24          	mov    0x24(%rsp),%eax
  4013b2:	69 c0 b3 d4 00 00    	imul   $0xd4b3,%eax,%eax
  4013b8:	89 44 24 24          	mov    %eax,0x24(%rsp)
  4013bc:	8b 04 24             	mov    (%rsp),%eax
  4013bf:	69 c0 e5 ca 00 00    	imul   $0xcae5,%eax,%eax
  4013c5:	89 04 24             	mov    %eax,(%rsp)
  4013c8:	8b 44 24 20          	mov    0x20(%rsp),%eax
  4013cc:	69 c0 04 72 00 00    	imul   $0x7204,%eax,%eax
  4013d2:	89 44 24 20          	mov    %eax,0x20(%rsp)
  4013d6:	8b 44 24 0c          	mov    0xc(%rsp),%eax
  4013da:	69 c0 d6 9b 00 00    	imul   $0x9bd6,%eax,%eax
  4013e0:	89 44 24 0c          	mov    %eax,0xc(%rsp)
  4013e4:	8b 44 24 20          	mov    0x20(%rsp),%eax
  4013e8:	69 c0 9b af 00 00    	imul   $0xaf9b,%eax,%eax
  4013ee:	89 44 24 20          	mov    %eax,0x20(%rsp)
  4013f2:	8b 44 24 1c          	mov    0x1c(%rsp),%eax
  4013f6:	69 c0 6c 41 00 00    	imul   $0x416c,%eax,%eax
  4013fc:	89 44 24 1c          	mov    %eax,0x1c(%rsp)
  401400:	8b 44 24 20          	mov    0x20(%rsp),%eax
  401404:	69 c0 12 bc 00 00    	imul   $0xbc12,%eax,%eax
  40140a:	89 44 24 20          	mov    %eax,0x20(%rsp)
  40140e:	8b 04 24             	mov    (%rsp),%eax
  401411:	69 c0 31 a5 00 00    	imul   $0xa531,%eax,%eax
  401417:	89 04 24             	mov    %eax,(%rsp)
  40141a:	8b 44 24 10          	mov    0x10(%rsp),%eax
  40141e:	69 c0 3f d8 00 00    	imul   $0xd83f,%eax,%eax
  401424:	89 44 24 10          	mov    %eax,0x10(%rsp)
  401428:	8b 44 24 24          	mov    0x24(%rsp),%eax
  40142c:	69 c0 77 94 00 00    	imul   $0x9477,%eax,%eax
  401432:	89 44 24 24          	mov    %eax,0x24(%rsp)
  401436:	8b 44 24 14          	mov    0x14(%rsp),%eax
  40143a:	69 c0 b1 6d 00 00    	imul   $0x6db1,%eax,%eax
  401440:	89 44 24 14          	mov    %eax,0x14(%rsp)
  401444:	8b 44 24 0c          	mov    0xc(%rsp),%eax
  401448:	69 c0 38 a5 00 00    	imul   $0xa538,%eax,%eax
  40144e:	89 44 24 0c          	mov    %eax,0xc(%rsp)
  401452:	8b 44 24 18          	mov    0x18(%rsp),%eax
  401456:	69 c0 26 82 00 00    	imul   $0x8226,%eax,%eax
  40145c:	89 44 24 18          	mov    %eax,0x18(%rsp)
  401460:	8b 44 24 1c          	mov    0x1c(%rsp),%eax
  401464:	69 c0 cf 2c 00 00    	imul   $0x2ccf,%eax,%eax
  40146a:	89 44 24 1c          	mov    %eax,0x1c(%rsp)
  40146e:	8b 44 24 10          	mov    0x10(%rsp),%eax
  401472:	69 c0 9f 8f 00 00    	imul   $0x8f9f,%eax,%eax
  401478:	89 44 24 10          	mov    %eax,0x10(%rsp)
  40147c:	8b 04 24             	mov    (%rsp),%eax
  40147f:	69 c0 ff 72 00 00    	imul   $0x72ff,%eax,%eax
  401485:	89 04 24             	mov    %eax,(%rsp)
  401488:	8b 44 24 0c          	mov    0xc(%rsp),%eax
  40148c:	69 c0 46 fc 00 00    	imul   $0xfc46,%eax,%eax
  401492:	89 44 24 0c          	mov    %eax,0xc(%rsp)
  401496:	8b 44 24 10          	mov    0x10(%rsp),%eax
  40149a:	69 c0 13 85 00 00    	imul   $0x8513,%eax,%eax
  4014a0:	89 44 24 10          	mov    %eax,0x10(%rsp)
  4014a4:	8b 44 24 0c          	mov    0xc(%rsp),%eax
  4014a8:	69 c0 23 49 00 00    	imul   $0x4923,%eax,%eax
  4014ae:	89 44 24 0c          	mov    %eax,0xc(%rsp)
  4014b2:	8b 44 24 18          	mov    0x18(%rsp),%eax
  4014b6:	69 c0 a3 5f 00 00    	imul   $0x5fa3,%eax,%eax
  4014bc:	89 44 24 18          	mov    %eax,0x18(%rsp)
  4014c0:	8b 44 24 24          	mov    0x24(%rsp),%eax
  4014c4:	69 c0 c5 be 00 00    	imul   $0xbec5,%eax,%eax
  4014ca:	89 44 24 24          	mov    %eax,0x24(%rsp)
  4014ce:	8b 44 24 1c          	mov    0x1c(%rsp),%eax
  4014d2:	69 c0 10 55 00 00    	imul   $0x5510,%eax,%eax
  4014d8:	89 44 24 1c          	mov    %eax,0x1c(%rsp)
  4014dc:	8b 44 24 14          	mov    0x14(%rsp),%eax
  4014e0:	69 c0 8e 00 00 00    	imul   $0x8e,%eax,%eax
  4014e6:	89 44 24 14          	mov    %eax,0x14(%rsp)
  4014ea:	8b 44 24 1c          	mov    0x1c(%rsp),%eax
  4014ee:	69 c0 eb 7a 00 00    	imul   $0x7aeb,%eax,%eax
  4014f4:	89 44 24 1c          	mov    %eax,0x1c(%rsp)
  4014f8:	8b 44 24 20          	mov    0x20(%rsp),%eax
  4014fc:	69 c0 49 25 00 00    	imul   $0x2549,%eax,%eax
  401502:	89 44 24 20          	mov    %eax,0x20(%rsp)
  401506:	8b 04 24             	mov    (%rsp),%eax
  401509:	69 c0 a8 18 00 00    	imul   $0x18a8,%eax,%eax
  40150f:	89 04 24             	mov    %eax,(%rsp)
  401512:	8b 44 24 04          	mov    0x4(%rsp),%eax
  401516:	69 c0 a7 f5 00 00    	imul   $0xf5a7,%eax,%eax
  40151c:	89 44 24 04          	mov    %eax,0x4(%rsp)
  401520:	8b 44 24 14          	mov    0x14(%rsp),%eax
  401524:	69 c0 02 4c 00 00    	imul   $0x4c02,%eax,%eax
  40152a:	89 44 24 14          	mov    %eax,0x14(%rsp)
  40152e:	8b 44 24 1c          	mov    0x1c(%rsp),%eax
  401532:	69 c0 93 06 00 00    	imul   $0x693,%eax,%eax
  401538:	89 44 24 1c          	mov    %eax,0x1c(%rsp)
  40153c:	8b 44 24 14          	mov    0x14(%rsp),%eax
  401540:	69 c0 44 b2 00 00    	imul   $0xb244,%eax,%eax
  401546:	89 44 24 14          	mov    %eax,0x14(%rsp)
  40154a:	8b 44 24 20          	mov    0x20(%rsp),%eax
  40154e:	69 c0 9c 00 00 00    	imul   $0x9c,%eax,%eax
  401554:	89 44 24 20          	mov    %eax,0x20(%rsp)
  401558:	8b 04 24             	mov    (%rsp),%eax
  40155b:	69 c0 85 fa 00 00    	imul   $0xfa85,%eax,%eax
  401561:	89 04 24             	mov    %eax,(%rsp)
  401564:	8b 44 24 20          	mov    0x20(%rsp),%eax
  401568:	69 c0 29 63 00 00    	imul   $0x6329,%eax,%eax
  40156e:	89 44 24 20          	mov    %eax,0x20(%rsp)
  401572:	8b 44 24 10          	mov    0x10(%rsp),%eax
  401576:	69 c0 2c 6b 00 00    	imul   $0x6b2c,%eax,%eax
  40157c:	89 44 24 10          	mov    %eax,0x10(%rsp)
  401580:	8b 44 24 1c          	mov    0x1c(%rsp),%eax
  401584:	69 c0 81 a0 00 00    	imul   $0xa081,%eax,%eax
  40158a:	89 44 24 1c          	mov    %eax,0x1c(%rsp)
  40158e:	8b 44 24 10          	mov    0x10(%rsp),%eax
  401592:	69 c0 0b a5 00 00    	imul   $0xa50b,%eax,%eax
  401598:	89 44 24 10          	mov    %eax,0x10(%rsp)
  40159c:	8b 44 24 1c          	mov    0x1c(%rsp),%eax
  4015a0:	69 c0 df 6b 00 00    	imul   $0x6bdf,%eax,%eax
  4015a6:	89 44 24 1c          	mov    %eax,0x1c(%rsp)
  4015aa:	8b 44 24 14          	mov    0x14(%rsp),%eax
  4015ae:	69 c0 1e da 00 00    	imul   $0xda1e,%eax,%eax
  4015b4:	89 44 24 14          	mov    %eax,0x14(%rsp)
  4015b8:	8b 44 24 0c          	mov    0xc(%rsp),%eax
  4015bc:	69 c0 5c f4 00 00    	imul   $0xf45c,%eax,%eax
  4015c2:	89 44 24 0c          	mov    %eax,0xc(%rsp)
  4015c6:	8b 44 24 14          	mov    0x14(%rsp),%eax
  4015ca:	69 c0 3a 45 00 00    	imul   $0x453a,%eax,%eax
  4015d0:	89 44 24 14          	mov    %eax,0x14(%rsp)
  4015d4:	8b 04 24             	mov    (%rsp),%eax
  4015d7:	69 c0 6c 64 00 00    	imul   $0x646c,%eax,%eax
  4015dd:	89 04 24             	mov    %eax,(%rsp)
  4015e0:	8b 44 24 24          	mov    0x24(%rsp),%eax
  4015e4:	69 c0 a0 ac 00 00    	imul   $0xaca0,%eax,%eax
  4015ea:	89 44 24 24          	mov    %eax,0x24(%rsp)
  4015ee:	8b 44 24 08          	mov    0x8(%rsp),%eax
  4015f2:	69 c0 c3 1b 00 00    	imul   $0x1bc3,%eax,%eax
  4015f8:	89 44 24 08          	mov    %eax,0x8(%rsp)
  4015fc:	8b 44 24 04          	mov    0x4(%rsp),%eax
  401600:	69 c0 e1 d1 00 00    	imul   $0xd1e1,%eax,%eax
  401606:	89 44 24 04          	mov    %eax,0x4(%rsp)
  40160a:	8b 44 24 24          	mov    0x24(%rsp),%eax
  40160e:	69 c0 73 71 00 00    	imul   $0x7173,%eax,%eax
  401614:	89 44 24 24          	mov    %eax,0x24(%rsp)
  401618:	8b 44 24 1c          	mov    0x1c(%rsp),%eax
  40161c:	69 c0 8a b8 00 00    	imul   $0xb88a,%eax,%eax
  401622:	89 44 24 1c          	mov    %eax,0x1c(%rsp)
  401626:	8b 44 24 0c          	mov    0xc(%rsp),%eax
  40162a:	69 c0 69 a9 00 00    	imul   $0xa969,%eax,%eax
  401630:	89 44 24 0c          	mov    %eax,0xc(%rsp)
  401634:	8b 04 24             	mov    (%rsp),%eax
  401637:	69 c0 f1 6e 00 00    	imul   $0x6ef1,%eax,%eax
  40163d:	89 04 24             	mov    %eax,(%rsp)
  401640:	8b 44 24 1c          	mov    0x1c(%rsp),%eax
  401644:	69 c0 a8 32 00 00    	imul   $0x32a8,%eax,%eax
  40164a:	89 44 24 1c          	mov    %eax,0x1c(%rsp)
  40164e:	8b 44 24 14          	mov    0x14(%rsp),%eax
  401652:	69 c0 df b8 00 00    	imul   $0xb8df,%eax,%eax
  401658:	89 44 24 14          	mov    %eax,0x14(%rsp)
  40165c:	8b 04 24             	mov    (%rsp),%eax
  40165f:	69 c0 ed a4 00 00    	imul   $0xa4ed,%eax,%eax
  401665:	89 04 24             	mov    %eax,(%rsp)
  401668:	8b 44 24 08          	mov    0x8(%rsp),%eax
  40166c:	69 c0 70 32 00 00    	imul   $0x3270,%eax,%eax
  401672:	89 44 24 08          	mov    %eax,0x8(%rsp)
  401676:	8b 44 24 20          	mov    0x20(%rsp),%eax
  40167a:	69 c0 05 58 00 00    	imul   $0x5805,%eax,%eax
  401680:	89 44 24 20          	mov    %eax,0x20(%rsp)
  401684:	8b 44 24 0c          	mov    0xc(%rsp),%eax
  401688:	69 c0 39 7d 00 00    	imul   $0x7d39,%eax,%eax
  40168e:	89 44 24 0c          	mov    %eax,0xc(%rsp)
  401692:	8b 44 24 0c          	mov    0xc(%rsp),%eax
  401696:	69 c0 97 61 00 00    	imul   $0x6197,%eax,%eax
  40169c:	89 44 24 0c          	mov    %eax,0xc(%rsp)
  4016a0:	8b 44 24 1c          	mov    0x1c(%rsp),%eax
  4016a4:	69 c0 06 66 00 00    	imul   $0x6606,%eax,%eax
  4016aa:	89 44 24 1c          	mov    %eax,0x1c(%rsp)
  4016ae:	8b 44 24 18          	mov    0x18(%rsp),%eax
  4016b2:	69 c0 55 20 00 00    	imul   $0x2055,%eax,%eax
  4016b8:	89 44 24 18          	mov    %eax,0x18(%rsp)
  4016bc:	8b 44 24 24          	mov    0x24(%rsp),%eax
  4016c0:	69 c0 17 20 00 00    	imul   $0x2017,%eax,%eax
  4016c6:	89 44 24 24          	mov    %eax,0x24(%rsp)
  4016ca:	8b 44 24 10          	mov    0x10(%rsp),%eax
  4016ce:	69 c0 48 0b 00 00    	imul   $0xb48,%eax,%eax
  4016d4:	89 44 24 10          	mov    %eax,0x10(%rsp)
  4016d8:	8b 44 24 10          	mov    0x10(%rsp),%eax
  4016dc:	69 c0 70 5e 00 00    	imul   $0x5e70,%eax,%eax
  4016e2:	89 44 24 10          	mov    %eax,0x10(%rsp)
  4016e6:	8b 04 24             	mov    (%rsp),%eax
  4016e9:	69 c0 1d 76 00 00    	imul   $0x761d,%eax,%eax
  4016ef:	89 04 24             	mov    %eax,(%rsp)
  4016f2:	8b 44 24 14          	mov    0x14(%rsp),%eax
  4016f6:	69 c0 cb ee 00 00    	imul   $0xeecb,%eax,%eax
  4016fc:	89 44 24 14          	mov    %eax,0x14(%rsp)
  401700:	8b 44 24 04          	mov    0x4(%rsp),%eax
  401704:	69 c0 09 ca 00 00    	imul   $0xca09,%eax,%eax
  40170a:	89 44 24 04          	mov    %eax,0x4(%rsp)
  40170e:	8b 44 24 24          	mov    0x24(%rsp),%eax
  401712:	69 c0 19 2c 00 00    	imul   $0x2c19,%eax,%eax
  401718:	89 44 24 24          	mov    %eax,0x24(%rsp)
  40171c:	8b 44 24 18          	mov    0x18(%rsp),%eax
  401720:	69 c0 da 37 00 00    	imul   $0x37da,%eax,%eax
  401726:	89 44 24 18          	mov    %eax,0x18(%rsp)
  40172a:	8b 44 24 0c          	mov    0xc(%rsp),%eax
  40172e:	69 c0 db cf 00 00    	imul   $0xcfdb,%eax,%eax
  401734:	89 44 24 0c          	mov    %eax,0xc(%rsp)
  401738:	8b 44 24 24          	mov    0x24(%rsp),%eax
  40173c:	69 c0 e2 42 00 00    	imul   $0x42e2,%eax,%eax
  401742:	89 44 24 24          	mov    %eax,0x24(%rsp)
  401746:	8b 44 24 1c          	mov    0x1c(%rsp),%eax
  40174a:	69 c0 93 ed 00 00    	imul   $0xed93,%eax,%eax
  401750:	89 44 24 1c          	mov    %eax,0x1c(%rsp)
  401754:	8b 44 24 18          	mov    0x18(%rsp),%eax
  401758:	69 c0 d9 0e 00 00    	imul   $0xed9,%eax,%eax
  40175e:	89 44 24 18          	mov    %eax,0x18(%rsp)
  401762:	8b 04 24             	mov    (%rsp),%eax
  401765:	69 c0 48 e7 00 00    	imul   $0xe748,%eax,%eax
  40176b:	89 04 24             	mov    %eax,(%rsp)
  40176e:	8b 44 24 0c          	mov    0xc(%rsp),%eax
  401772:	69 c0 3f 2d 00 00    	imul   $0x2d3f,%eax,%eax
  401778:	89 44 24 0c          	mov    %eax,0xc(%rsp)
  40177c:	8b 44 24 14          	mov    0x14(%rsp),%eax
  401780:	69 c0 74 36 00 00    	imul   $0x3674,%eax,%eax
  401786:	89 44 24 14          	mov    %eax,0x14(%rsp)
  40178a:	8b 44 24 14          	mov    0x14(%rsp),%eax
  40178e:	69 c0 f5 5f 00 00    	imul   $0x5ff5,%eax,%eax
  401794:	89 44 24 14          	mov    %eax,0x14(%rsp)
  401798:	ba 00 00 00 00       	mov    $0x0,%edx
  40179d:	b8 00 00 00 00       	mov    $0x0,%eax
  4017a2:	eb 0a                	jmp    4017ae <scramble+0x463>
  4017a4:	89 d1                	mov    %edx,%ecx
  4017a6:	8b 0c 8c             	mov    (%rsp,%rcx,4),%ecx
  4017a9:	01 c8                	add    %ecx,%eax
  4017ab:	83 c2 01             	add    $0x1,%edx
  4017ae:	83 fa 09             	cmp    $0x9,%edx
  4017b1:	76 f1                	jbe    4017a4 <scramble+0x459>
  4017b3:	48 8b 74 24 28       	mov    0x28(%rsp),%rsi
  4017b8:	64 48 33 34 25 28 00 	xor    %fs:0x28,%rsi
  4017bf:	00 00 
  4017c1:	75 05                	jne    4017c8 <scramble+0x47d>
  4017c3:	48 83 c4 38          	add    $0x38,%rsp
  4017c7:	c3                   	retq   
  4017c8:	e8 13 f5 ff ff       	callq  400ce0 <__stack_chk_fail@plt>

00000000004017cd <getbuf>:
  4017cd:	48 83 ec 38          	sub    $0x38,%rsp
  4017d1:	48 89 e7             	mov    %rsp,%rdi
  4017d4:	e8 ba 03 00 00       	callq  401b93 <Gets>
  4017d9:	b8 01 00 00 00       	mov    $0x1,%eax
  4017de:	48 83 c4 38          	add    $0x38,%rsp
  4017e2:	c3                   	retq   

00000000004017e3 <touch1>:
  4017e3:	48 83 ec 08          	sub    $0x8,%rsp
  4017e7:	c7 05 0b 3d 20 00 01 	movl   $0x1,0x203d0b(%rip)        # 6054fc <vlevel>
  4017ee:	00 00 00 
  4017f1:	48 8d 3d 98 1a 00 00 	lea    0x1a98(%rip),%rdi        # 403290 <_IO_stdin_used+0x2d0>
  4017f8:	e8 c3 f4 ff ff       	callq  400cc0 <puts@plt>
  4017fd:	bf 01 00 00 00       	mov    $0x1,%edi
  401802:	e8 fc 05 00 00       	callq  401e03 <validate>
  401807:	bf 00 00 00 00       	mov    $0x0,%edi
  40180c:	e8 1f f6 ff ff       	callq  400e30 <exit@plt>

0000000000401811 <touch2>:
  401811:	48 83 ec 08          	sub    $0x8,%rsp
  401815:	89 fa                	mov    %edi,%edx
  401817:	c7 05 db 3c 20 00 02 	movl   $0x2,0x203cdb(%rip)        # 6054fc <vlevel>
  40181e:	00 00 00 
  401821:	39 3d dd 3c 20 00    	cmp    %edi,0x203cdd(%rip)        # 605504 <cookie>
  401827:	74 2a                	je     401853 <touch2+0x42>
  401829:	48 8d 35 b0 1a 00 00 	lea    0x1ab0(%rip),%rsi        # 4032e0 <_IO_stdin_used+0x320>
  401830:	bf 01 00 00 00       	mov    $0x1,%edi
  401835:	b8 00 00 00 00       	mov    $0x0,%eax
  40183a:	e8 a1 f5 ff ff       	callq  400de0 <__printf_chk@plt>
  40183f:	bf 02 00 00 00       	mov    $0x2,%edi
  401844:	e8 8a 06 00 00       	callq  401ed3 <fail>
  401849:	bf 00 00 00 00       	mov    $0x0,%edi
  40184e:	e8 dd f5 ff ff       	callq  400e30 <exit@plt>
  401853:	48 8d 35 5e 1a 00 00 	lea    0x1a5e(%rip),%rsi        # 4032b8 <_IO_stdin_used+0x2f8>
  40185a:	bf 01 00 00 00       	mov    $0x1,%edi
  40185f:	b8 00 00 00 00       	mov    $0x0,%eax
  401864:	e8 77 f5 ff ff       	callq  400de0 <__printf_chk@plt>
  401869:	bf 02 00 00 00       	mov    $0x2,%edi
  40186e:	e8 90 05 00 00       	callq  401e03 <validate>
  401873:	eb d4                	jmp    401849 <touch2+0x38>

0000000000401875 <hexmatch>:
  401875:	41 54                	push   %r12
  401877:	55                   	push   %rbp
  401878:	53                   	push   %rbx
  401879:	48 83 c4 80          	add    $0xffffffffffffff80,%rsp
  40187d:	89 fd                	mov    %edi,%ebp
  40187f:	48 89 f3             	mov    %rsi,%rbx
  401882:	64 48 8b 04 25 28 00 	mov    %fs:0x28,%rax
  401889:	00 00 
  40188b:	48 89 44 24 78       	mov    %rax,0x78(%rsp)
  401890:	31 c0                	xor    %eax,%eax
  401892:	e8 09 f5 ff ff       	callq  400da0 <random@plt>
  401897:	48 89 c1             	mov    %rax,%rcx
  40189a:	48 ba 0b d7 a3 70 3d 	movabs $0xa3d70a3d70a3d70b,%rdx
  4018a1:	0a d7 a3 
  4018a4:	48 f7 ea             	imul   %rdx
  4018a7:	48 01 ca             	add    %rcx,%rdx
  4018aa:	48 c1 fa 06          	sar    $0x6,%rdx
  4018ae:	48 89 c8             	mov    %rcx,%rax
  4018b1:	48 c1 f8 3f          	sar    $0x3f,%rax
  4018b5:	48 29 c2             	sub    %rax,%rdx
  4018b8:	48 8d 04 92          	lea    (%rdx,%rdx,4),%rax
  4018bc:	48 8d 14 80          	lea    (%rax,%rax,4),%rdx
  4018c0:	48 8d 04 95 00 00 00 	lea    0x0(,%rdx,4),%rax
  4018c7:	00 
  4018c8:	48 29 c1             	sub    %rax,%rcx
  4018cb:	4c 8d 24 0c          	lea    (%rsp,%rcx,1),%r12
  4018cf:	41 89 e8             	mov    %ebp,%r8d
  4018d2:	48 8d 0d d4 19 00 00 	lea    0x19d4(%rip),%rcx        # 4032ad <_IO_stdin_used+0x2ed>
  4018d9:	48 c7 c2 ff ff ff ff 	mov    $0xffffffffffffffff,%rdx
  4018e0:	be 01 00 00 00       	mov    $0x1,%esi
  4018e5:	4c 89 e7             	mov    %r12,%rdi
  4018e8:	b8 00 00 00 00       	mov    $0x0,%eax
  4018ed:	e8 6e f5 ff ff       	callq  400e60 <__sprintf_chk@plt>
  4018f2:	ba 09 00 00 00       	mov    $0x9,%edx
  4018f7:	4c 89 e6             	mov    %r12,%rsi
  4018fa:	48 89 df             	mov    %rbx,%rdi
  4018fd:	e8 9e f3 ff ff       	callq  400ca0 <strncmp@plt>
  401902:	85 c0                	test   %eax,%eax
  401904:	0f 94 c0             	sete   %al
  401907:	48 8b 5c 24 78       	mov    0x78(%rsp),%rbx
  40190c:	64 48 33 1c 25 28 00 	xor    %fs:0x28,%rbx
  401913:	00 00 
  401915:	75 0c                	jne    401923 <hexmatch+0xae>
  401917:	0f b6 c0             	movzbl %al,%eax
  40191a:	48 83 ec 80          	sub    $0xffffffffffffff80,%rsp
  40191e:	5b                   	pop    %rbx
  40191f:	5d                   	pop    %rbp
  401920:	41 5c                	pop    %r12
  401922:	c3                   	retq   
  401923:	e8 b8 f3 ff ff       	callq  400ce0 <__stack_chk_fail@plt>

0000000000401928 <touch3>:
  401928:	53                   	push   %rbx
  401929:	48 89 fb             	mov    %rdi,%rbx
  40192c:	c7 05 c6 3b 20 00 03 	movl   $0x3,0x203bc6(%rip)        # 6054fc <vlevel>
  401933:	00 00 00 
  401936:	48 89 fe             	mov    %rdi,%rsi
  401939:	8b 3d c5 3b 20 00    	mov    0x203bc5(%rip),%edi        # 605504 <cookie>
  40193f:	e8 31 ff ff ff       	callq  401875 <hexmatch>
  401944:	85 c0                	test   %eax,%eax
  401946:	74 2d                	je     401975 <touch3+0x4d>
  401948:	48 89 da             	mov    %rbx,%rdx
  40194b:	48 8d 35 b6 19 00 00 	lea    0x19b6(%rip),%rsi        # 403308 <_IO_stdin_used+0x348>
  401952:	bf 01 00 00 00       	mov    $0x1,%edi
  401957:	b8 00 00 00 00       	mov    $0x0,%eax
  40195c:	e8 7f f4 ff ff       	callq  400de0 <__printf_chk@plt>
  401961:	bf 03 00 00 00       	mov    $0x3,%edi
  401966:	e8 98 04 00 00       	callq  401e03 <validate>
  40196b:	bf 00 00 00 00       	mov    $0x0,%edi
  401970:	e8 bb f4 ff ff       	callq  400e30 <exit@plt>
  401975:	48 89 da             	mov    %rbx,%rdx
  401978:	48 8d 35 b1 19 00 00 	lea    0x19b1(%rip),%rsi        # 403330 <_IO_stdin_used+0x370>
  40197f:	bf 01 00 00 00       	mov    $0x1,%edi
  401984:	b8 00 00 00 00       	mov    $0x0,%eax
  401989:	e8 52 f4 ff ff       	callq  400de0 <__printf_chk@plt>
  40198e:	bf 03 00 00 00       	mov    $0x3,%edi
  401993:	e8 3b 05 00 00       	callq  401ed3 <fail>
  401998:	eb d1                	jmp    40196b <touch3+0x43>

000000000040199a <test>:
  40199a:	48 83 ec 08          	sub    $0x8,%rsp
  40199e:	b8 00 00 00 00       	mov    $0x0,%eax
  4019a3:	e8 25 fe ff ff       	callq  4017cd <getbuf>
  4019a8:	89 c2                	mov    %eax,%edx
  4019aa:	48 8d 35 a7 19 00 00 	lea    0x19a7(%rip),%rsi        # 403358 <_IO_stdin_used+0x398>
  4019b1:	bf 01 00 00 00       	mov    $0x1,%edi
  4019b6:	b8 00 00 00 00       	mov    $0x0,%eax
  4019bb:	e8 20 f4 ff ff       	callq  400de0 <__printf_chk@plt>
  4019c0:	48 83 c4 08          	add    $0x8,%rsp
  4019c4:	c3                   	retq   

00000000004019c5 <start_farm>:
  4019c5:	b8 01 00 00 00       	mov    $0x1,%eax
  4019ca:	c3                   	retq   

00000000004019cb <addval_442>:
  4019cb:	8d 87 48 89 c7 92    	lea    -0x6d3876b8(%rdi),%eax
  4019d1:	c3                   	retq   

00000000004019d2 <getval_335>:
  4019d2:	b8 58 c3 83 99       	mov    $0x9983c358,%eax
  4019d7:	c3                   	retq   

00000000004019d8 <setval_194>:
  4019d8:	c7 07 38 58 90 c3    	movl   $0xc3905838,(%rdi)
  4019de:	c3                   	retq   

00000000004019df <setval_190>:
  4019df:	c7 07 95 48 8d c7    	movl   $0xc78d4895,(%rdi)
  4019e5:	c3                   	retq   

00000000004019e6 <setval_189>:
  4019e6:	c7 07 18 90 90 c3    	movl   $0xc3909018,(%rdi)
  4019ec:	c3                   	retq   

00000000004019ed <getval_316>:
  4019ed:	b8 04 48 89 c7       	mov    $0xc7894804,%eax
  4019f2:	c3                   	retq   

00000000004019f3 <addval_453>:
  4019f3:	8d 87 48 89 c7 c3    	lea    -0x3c3876b8(%rdi),%eax
  4019f9:	c3                   	retq   

00000000004019fa <addval_486>:
  4019fa:	8d 87 78 c3 bf 28    	lea    0x28bfc378(%rdi),%eax
  401a00:	c3                   	retq   

0000000000401a01 <mid_farm>:
  401a01:	b8 01 00 00 00       	mov    $0x1,%eax
  401a06:	c3                   	retq   

0000000000401a07 <add_xy>:
  401a07:	48 8d 04 37          	lea    (%rdi,%rsi,1),%rax
  401a0b:	c3                   	retq   

0000000000401a0c <addval_333>:
  401a0c:	8d 87 18 48 89 e0    	lea    -0x1f76b7e8(%rdi),%eax
  401a12:	c3                   	retq   

0000000000401a13 <getval_172>:
  401a13:	b8 48 89 e0 c1       	mov    $0xc1e08948,%eax
  401a18:	c3                   	retq   

0000000000401a19 <addval_281>:
  401a19:	8d 87 48 89 e0 94    	lea    -0x6b1f76b8(%rdi),%eax
  401a1f:	c3                   	retq   

0000000000401a20 <setval_376>:
  401a20:	c7 07 89 ca 90 c3    	movl   $0xc390ca89,(%rdi)
  401a26:	c3                   	retq   

0000000000401a27 <addval_121>:
  401a27:	8d 87 89 ca 60 c9    	lea    -0x369f3577(%rdi),%eax
  401a2d:	c3                   	retq   

0000000000401a2e <setval_479>:
  401a2e:	c7 07 5b 8d d6 c3    	movl   $0xc3d68d5b,(%rdi)
  401a34:	c3                   	retq   

0000000000401a35 <addval_482>:
  401a35:	8d 87 04 81 c1 c3    	lea    -0x3c3e7efc(%rdi),%eax
  401a3b:	c3                   	retq   

0000000000401a3c <addval_480>:
  401a3c:	8d 87 c9 c1 08 db    	lea    -0x24f73e37(%rdi),%eax
  401a42:	c3                   	retq   

0000000000401a43 <setval_292>:
  401a43:	c7 07 89 d6 78 db    	movl   $0xdb78d689,(%rdi)
  401a49:	c3                   	retq   

0000000000401a4a <addval_229>:
  401a4a:	8d 87 8d c1 84 d2    	lea    -0x2d7b3e73(%rdi),%eax
  401a50:	c3                   	retq   

0000000000401a51 <getval_429>:
  401a51:	b8 89 ca 00 db       	mov    $0xdb00ca89,%eax
  401a56:	c3                   	retq   

0000000000401a57 <getval_389>:
  401a57:	b8 48 89 e0 92       	mov    $0x92e08948,%eax
  401a5c:	c3                   	retq   

0000000000401a5d <setval_266>:
  401a5d:	c7 07 89 d6 84 c0    	movl   $0xc084d689,(%rdi)
  401a63:	c3                   	retq   

0000000000401a64 <setval_334>:
  401a64:	c7 07 89 ca 18 c9    	movl   $0xc918ca89,(%rdi)
  401a6a:	c3                   	retq   

0000000000401a6b <setval_213>:
  401a6b:	c7 07 74 89 c1 90    	movl   $0x90c18974,(%rdi)
  401a71:	c3                   	retq   

0000000000401a72 <addval_118>:
  401a72:	8d 87 89 ca 38 db    	lea    -0x24c73577(%rdi),%eax
  401a78:	c3                   	retq   

0000000000401a79 <getval_492>:
  401a79:	b8 48 88 e0 c3       	mov    $0xc3e08848,%eax
  401a7e:	c3                   	retq   

0000000000401a7f <setval_490>:
  401a7f:	c7 07 89 ca 92 c3    	movl   $0xc392ca89,(%rdi)
  401a85:	c3                   	retq   

0000000000401a86 <addval_386>:
  401a86:	8d 87 89 c1 28 db    	lea    -0x24d73e77(%rdi),%eax
  401a8c:	c3                   	retq   

0000000000401a8d <addval_129>:
  401a8d:	8d 87 8d d6 84 c0    	lea    -0x3f7b2973(%rdi),%eax
  401a93:	c3                   	retq   

0000000000401a94 <setval_143>:
  401a94:	c7 07 99 d6 90 90    	movl   $0x9090d699,(%rdi)
  401a9a:	c3                   	retq   

0000000000401a9b <getval_126>:
  401a9b:	b8 ab 48 99 e0       	mov    $0xe09948ab,%eax
  401aa0:	c3                   	retq   

0000000000401aa1 <setval_467>:
  401aa1:	c7 07 8b ca 84 db    	movl   $0xdb84ca8b,(%rdi)
  401aa7:	c3                   	retq   

0000000000401aa8 <addval_191>:
  401aa8:	8d 87 44 89 c1 90    	lea    -0x6f3e76bc(%rdi),%eax
  401aae:	c3                   	retq   

0000000000401aaf <getval_315>:
  401aaf:	b8 48 88 e0 90       	mov    $0x90e08848,%eax
  401ab4:	c3                   	retq   

0000000000401ab5 <addval_404>:
  401ab5:	8d 87 99 ca 38 c0    	lea    -0x3fc73567(%rdi),%eax
  401abb:	c3                   	retq   

0000000000401abc <setval_409>:
  401abc:	c7 07 81 d6 38 d2    	movl   $0xd238d681,(%rdi)
  401ac2:	c3                   	retq   

0000000000401ac3 <addval_293>:
  401ac3:	8d 87 48 89 e0 90    	lea    -0x6f1f76b8(%rdi),%eax
  401ac9:	c3                   	retq   

0000000000401aca <setval_366>:
  401aca:	c7 07 89 d6 78 c9    	movl   $0xc978d689,(%rdi)
  401ad0:	c3                   	retq   

0000000000401ad1 <addval_101>:
  401ad1:	8d 87 89 d6 84 c0    	lea    -0x3f7b2977(%rdi),%eax
  401ad7:	c3                   	retq   

0000000000401ad8 <addval_352>:
  401ad8:	8d 87 89 c1 30 d2    	lea    -0x2dcf3e77(%rdi),%eax
  401ade:	c3                   	retq   

0000000000401adf <getval_379>:
  401adf:	b8 89 c1 a4 c0       	mov    $0xc0a4c189,%eax
  401ae4:	c3                   	retq   

0000000000401ae5 <end_farm>:
  401ae5:	b8 01 00 00 00       	mov    $0x1,%eax
  401aea:	c3                   	retq   

0000000000401aeb <save_char>:
  401aeb:	8b 05 33 46 20 00    	mov    0x204633(%rip),%eax        # 606124 <gets_cnt>
  401af1:	3d ff 03 00 00       	cmp    $0x3ff,%eax
  401af6:	7f 4a                	jg     401b42 <save_char+0x57>
  401af8:	89 f9                	mov    %edi,%ecx
  401afa:	c0 e9 04             	shr    $0x4,%cl
  401afd:	8d 14 40             	lea    (%rax,%rax,2),%edx
  401b00:	4c 8d 05 79 1b 00 00 	lea    0x1b79(%rip),%r8        # 403680 <trans_char>
  401b07:	83 e1 0f             	and    $0xf,%ecx
  401b0a:	45 0f b6 0c 08       	movzbl (%r8,%rcx,1),%r9d
  401b0f:	48 8d 0d 0a 3a 20 00 	lea    0x203a0a(%rip),%rcx        # 605520 <gets_buf>
  401b16:	48 63 f2             	movslq %edx,%rsi
  401b19:	44 88 0c 31          	mov    %r9b,(%rcx,%rsi,1)
  401b1d:	8d 72 01             	lea    0x1(%rdx),%esi
  401b20:	83 e7 0f             	and    $0xf,%edi
  401b23:	41 0f b6 3c 38       	movzbl (%r8,%rdi,1),%edi
  401b28:	48 63 f6             	movslq %esi,%rsi
  401b2b:	40 88 3c 31          	mov    %dil,(%rcx,%rsi,1)
  401b2f:	83 c2 02             	add    $0x2,%edx
  401b32:	48 63 d2             	movslq %edx,%rdx
  401b35:	c6 04 11 20          	movb   $0x20,(%rcx,%rdx,1)
  401b39:	83 c0 01             	add    $0x1,%eax
  401b3c:	89 05 e2 45 20 00    	mov    %eax,0x2045e2(%rip)        # 606124 <gets_cnt>
  401b42:	f3 c3                	repz retq 

0000000000401b44 <save_term>:
  401b44:	8b 05 da 45 20 00    	mov    0x2045da(%rip),%eax        # 606124 <gets_cnt>
  401b4a:	8d 04 40             	lea    (%rax,%rax,2),%eax
  401b4d:	48 98                	cltq   
  401b4f:	48 8d 15 ca 39 20 00 	lea    0x2039ca(%rip),%rdx        # 605520 <gets_buf>
  401b56:	c6 04 02 00          	movb   $0x0,(%rdx,%rax,1)
  401b5a:	c3                   	retq   

0000000000401b5b <check_fail>:
  401b5b:	48 83 ec 08          	sub    $0x8,%rsp
  401b5f:	0f be 15 c2 45 20 00 	movsbl 0x2045c2(%rip),%edx        # 606128 <target_prefix>
  401b66:	4c 8d 05 b3 39 20 00 	lea    0x2039b3(%rip),%r8        # 605520 <gets_buf>
  401b6d:	8b 0d 85 39 20 00    	mov    0x203985(%rip),%ecx        # 6054f8 <check_level>
  401b73:	48 8d 35 01 18 00 00 	lea    0x1801(%rip),%rsi        # 40337b <_IO_stdin_used+0x3bb>
  401b7a:	bf 01 00 00 00       	mov    $0x1,%edi
  401b7f:	b8 00 00 00 00       	mov    $0x0,%eax
  401b84:	e8 57 f2 ff ff       	callq  400de0 <__printf_chk@plt>
  401b89:	bf 01 00 00 00       	mov    $0x1,%edi
  401b8e:	e8 9d f2 ff ff       	callq  400e30 <exit@plt>

0000000000401b93 <Gets>:
  401b93:	41 54                	push   %r12
  401b95:	55                   	push   %rbp
  401b96:	53                   	push   %rbx
  401b97:	49 89 fc             	mov    %rdi,%r12
  401b9a:	c7 05 80 45 20 00 00 	movl   $0x0,0x204580(%rip)        # 606124 <gets_cnt>
  401ba1:	00 00 00 
  401ba4:	48 89 fb             	mov    %rdi,%rbx
  401ba7:	eb 11                	jmp    401bba <Gets+0x27>
  401ba9:	48 8d 6b 01          	lea    0x1(%rbx),%rbp
  401bad:	88 03                	mov    %al,(%rbx)
  401baf:	0f b6 f8             	movzbl %al,%edi
  401bb2:	e8 34 ff ff ff       	callq  401aeb <save_char>
  401bb7:	48 89 eb             	mov    %rbp,%rbx
  401bba:	48 8b 3d 2f 39 20 00 	mov    0x20392f(%rip),%rdi        # 6054f0 <infile>
  401bc1:	e8 ea f1 ff ff       	callq  400db0 <_IO_getc@plt>
  401bc6:	83 f8 ff             	cmp    $0xffffffff,%eax
  401bc9:	74 05                	je     401bd0 <Gets+0x3d>
  401bcb:	83 f8 0a             	cmp    $0xa,%eax
  401bce:	75 d9                	jne    401ba9 <Gets+0x16>
  401bd0:	c6 03 00             	movb   $0x0,(%rbx)
  401bd3:	b8 00 00 00 00       	mov    $0x0,%eax
  401bd8:	e8 67 ff ff ff       	callq  401b44 <save_term>
  401bdd:	4c 89 e0             	mov    %r12,%rax
  401be0:	5b                   	pop    %rbx
  401be1:	5d                   	pop    %rbp
  401be2:	41 5c                	pop    %r12
  401be4:	c3                   	retq   

0000000000401be5 <notify_server>:
  401be5:	55                   	push   %rbp
  401be6:	53                   	push   %rbx
  401be7:	48 81 ec 18 40 00 00 	sub    $0x4018,%rsp
  401bee:	64 48 8b 04 25 28 00 	mov    %fs:0x28,%rax
  401bf5:	00 00 
  401bf7:	48 89 84 24 08 40 00 	mov    %rax,0x4008(%rsp)
  401bfe:	00 
  401bff:	31 c0                	xor    %eax,%eax
  401c01:	83 3d 00 39 20 00 00 	cmpl   $0x0,0x203900(%rip)        # 605508 <is_checker>
  401c08:	0f 85 d2 00 00 00    	jne    401ce0 <notify_server+0xfb>
  401c0e:	89 fb                	mov    %edi,%ebx
  401c10:	8b 05 0e 45 20 00    	mov    0x20450e(%rip),%eax        # 606124 <gets_cnt>
  401c16:	83 c0 64             	add    $0x64,%eax
  401c19:	3d 00 20 00 00       	cmp    $0x2000,%eax
  401c1e:	0f 8f dd 00 00 00    	jg     401d01 <notify_server+0x11c>
  401c24:	0f be 05 fd 44 20 00 	movsbl 0x2044fd(%rip),%eax        # 606128 <target_prefix>
  401c2b:	83 3d 56 38 20 00 00 	cmpl   $0x0,0x203856(%rip)        # 605488 <notify>
  401c32:	0f 84 e9 00 00 00    	je     401d21 <notify_server+0x13c>
  401c38:	8b 15 c2 38 20 00    	mov    0x2038c2(%rip),%edx        # 605500 <authkey>
  401c3e:	85 db                	test   %ebx,%ebx
  401c40:	0f 84 e5 00 00 00    	je     401d2b <notify_server+0x146>
  401c46:	48 8d 2d 44 17 00 00 	lea    0x1744(%rip),%rbp        # 403391 <_IO_stdin_used+0x3d1>
  401c4d:	48 89 e7             	mov    %rsp,%rdi
  401c50:	48 8d 0d c9 38 20 00 	lea    0x2038c9(%rip),%rcx        # 605520 <gets_buf>
  401c57:	51                   	push   %rcx
  401c58:	56                   	push   %rsi
  401c59:	50                   	push   %rax
  401c5a:	52                   	push   %rdx
  401c5b:	49 89 e9             	mov    %rbp,%r9
  401c5e:	4c 8b 05 cb 34 20 00 	mov    0x2034cb(%rip),%r8        # 605130 <target_id>
  401c65:	48 8d 0d 2f 17 00 00 	lea    0x172f(%rip),%rcx        # 40339b <_IO_stdin_used+0x3db>
  401c6c:	ba 00 20 00 00       	mov    $0x2000,%edx
  401c71:	be 01 00 00 00       	mov    $0x1,%esi
  401c76:	b8 00 00 00 00       	mov    $0x0,%eax
  401c7b:	e8 e0 f1 ff ff       	callq  400e60 <__sprintf_chk@plt>
  401c80:	48 83 c4 20          	add    $0x20,%rsp
  401c84:	83 3d fd 37 20 00 00 	cmpl   $0x0,0x2037fd(%rip)        # 605488 <notify>
  401c8b:	0f 84 df 00 00 00    	je     401d70 <notify_server+0x18b>
  401c91:	85 db                	test   %ebx,%ebx
  401c93:	0f 84 c6 00 00 00    	je     401d5f <notify_server+0x17a>
  401c99:	48 89 e1             	mov    %rsp,%rcx
  401c9c:	4c 8d 8c 24 00 20 00 	lea    0x2000(%rsp),%r9
  401ca3:	00 
  401ca4:	41 b8 00 00 00 00    	mov    $0x0,%r8d
  401caa:	48 8b 15 97 34 20 00 	mov    0x203497(%rip),%rdx        # 605148 <lab>
  401cb1:	48 8b 35 98 34 20 00 	mov    0x203498(%rip),%rsi        # 605150 <course>
  401cb8:	48 8b 3d 81 34 20 00 	mov    0x203481(%rip),%rdi        # 605140 <user_id>
  401cbf:	e8 af 11 00 00       	callq  402e73 <driver_post>
  401cc4:	85 c0                	test   %eax,%eax
  401cc6:	78 6f                	js     401d37 <notify_server+0x152>
  401cc8:	48 8d 3d 11 18 00 00 	lea    0x1811(%rip),%rdi        # 4034e0 <_IO_stdin_used+0x520>
  401ccf:	e8 ec ef ff ff       	callq  400cc0 <puts@plt>
  401cd4:	48 8d 3d ea 16 00 00 	lea    0x16ea(%rip),%rdi        # 4033c5 <_IO_stdin_used+0x405>
  401cdb:	e8 e0 ef ff ff       	callq  400cc0 <puts@plt>
  401ce0:	48 8b 84 24 08 40 00 	mov    0x4008(%rsp),%rax
  401ce7:	00 
  401ce8:	64 48 33 04 25 28 00 	xor    %fs:0x28,%rax
  401cef:	00 00 
  401cf1:	0f 85 07 01 00 00    	jne    401dfe <notify_server+0x219>
  401cf7:	48 81 c4 18 40 00 00 	add    $0x4018,%rsp
  401cfe:	5b                   	pop    %rbx
  401cff:	5d                   	pop    %rbp
  401d00:	c3                   	retq   
  401d01:	48 8d 35 a8 17 00 00 	lea    0x17a8(%rip),%rsi        # 4034b0 <_IO_stdin_used+0x4f0>
  401d08:	bf 01 00 00 00       	mov    $0x1,%edi
  401d0d:	b8 00 00 00 00       	mov    $0x0,%eax
  401d12:	e8 c9 f0 ff ff       	callq  400de0 <__printf_chk@plt>
  401d17:	bf 01 00 00 00       	mov    $0x1,%edi
  401d1c:	e8 0f f1 ff ff       	callq  400e30 <exit@plt>
  401d21:	ba ff ff ff ff       	mov    $0xffffffff,%edx
  401d26:	e9 13 ff ff ff       	jmpq   401c3e <notify_server+0x59>
  401d2b:	48 8d 2d 64 16 00 00 	lea    0x1664(%rip),%rbp        # 403396 <_IO_stdin_used+0x3d6>
  401d32:	e9 16 ff ff ff       	jmpq   401c4d <notify_server+0x68>
  401d37:	48 8d 94 24 00 20 00 	lea    0x2000(%rsp),%rdx
  401d3e:	00 
  401d3f:	48 8d 35 73 16 00 00 	lea    0x1673(%rip),%rsi        # 4033b9 <_IO_stdin_used+0x3f9>
  401d46:	bf 01 00 00 00       	mov    $0x1,%edi
  401d4b:	b8 00 00 00 00       	mov    $0x0,%eax
  401d50:	e8 8b f0 ff ff       	callq  400de0 <__printf_chk@plt>
  401d55:	bf 01 00 00 00       	mov    $0x1,%edi
  401d5a:	e8 d1 f0 ff ff       	callq  400e30 <exit@plt>
  401d5f:	48 8d 3d 69 16 00 00 	lea    0x1669(%rip),%rdi        # 4033cf <_IO_stdin_used+0x40f>
  401d66:	e8 55 ef ff ff       	callq  400cc0 <puts@plt>
  401d6b:	e9 70 ff ff ff       	jmpq   401ce0 <notify_server+0xfb>
  401d70:	48 89 ea             	mov    %rbp,%rdx
  401d73:	48 8d 35 9e 17 00 00 	lea    0x179e(%rip),%rsi        # 403518 <_IO_stdin_used+0x558>
  401d7a:	bf 01 00 00 00       	mov    $0x1,%edi
  401d7f:	b8 00 00 00 00       	mov    $0x0,%eax
  401d84:	e8 57 f0 ff ff       	callq  400de0 <__printf_chk@plt>
  401d89:	48 8b 15 b0 33 20 00 	mov    0x2033b0(%rip),%rdx        # 605140 <user_id>
  401d90:	48 8d 35 3f 16 00 00 	lea    0x163f(%rip),%rsi        # 4033d6 <_IO_stdin_used+0x416>
  401d97:	bf 01 00 00 00       	mov    $0x1,%edi
  401d9c:	b8 00 00 00 00       	mov    $0x0,%eax
  401da1:	e8 3a f0 ff ff       	callq  400de0 <__printf_chk@plt>
  401da6:	48 8b 15 a3 33 20 00 	mov    0x2033a3(%rip),%rdx        # 605150 <course>
  401dad:	48 8d 35 2f 16 00 00 	lea    0x162f(%rip),%rsi        # 4033e3 <_IO_stdin_used+0x423>
  401db4:	bf 01 00 00 00       	mov    $0x1,%edi
  401db9:	b8 00 00 00 00       	mov    $0x0,%eax
  401dbe:	e8 1d f0 ff ff       	callq  400de0 <__printf_chk@plt>
  401dc3:	48 8b 15 7e 33 20 00 	mov    0x20337e(%rip),%rdx        # 605148 <lab>
  401dca:	48 8d 35 1e 16 00 00 	lea    0x161e(%rip),%rsi        # 4033ef <_IO_stdin_used+0x42f>
  401dd1:	bf 01 00 00 00       	mov    $0x1,%edi
  401dd6:	b8 00 00 00 00       	mov    $0x0,%eax
  401ddb:	e8 00 f0 ff ff       	callq  400de0 <__printf_chk@plt>
  401de0:	48 89 e2             	mov    %rsp,%rdx
  401de3:	48 8d 35 0e 16 00 00 	lea    0x160e(%rip),%rsi        # 4033f8 <_IO_stdin_used+0x438>
  401dea:	bf 01 00 00 00       	mov    $0x1,%edi
  401def:	b8 00 00 00 00       	mov    $0x0,%eax
  401df4:	e8 e7 ef ff ff       	callq  400de0 <__printf_chk@plt>
  401df9:	e9 e2 fe ff ff       	jmpq   401ce0 <notify_server+0xfb>
  401dfe:	e8 dd ee ff ff       	callq  400ce0 <__stack_chk_fail@plt>

0000000000401e03 <validate>:
  401e03:	53                   	push   %rbx
  401e04:	89 fb                	mov    %edi,%ebx
  401e06:	83 3d fb 36 20 00 00 	cmpl   $0x0,0x2036fb(%rip)        # 605508 <is_checker>
  401e0d:	74 72                	je     401e81 <validate+0x7e>
  401e0f:	39 3d e7 36 20 00    	cmp    %edi,0x2036e7(%rip)        # 6054fc <vlevel>
  401e15:	75 32                	jne    401e49 <validate+0x46>
  401e17:	8b 15 db 36 20 00    	mov    0x2036db(%rip),%edx        # 6054f8 <check_level>
  401e1d:	39 fa                	cmp    %edi,%edx
  401e1f:	75 3e                	jne    401e5f <validate+0x5c>
  401e21:	0f be 15 00 43 20 00 	movsbl 0x204300(%rip),%edx        # 606128 <target_prefix>
  401e28:	4c 8d 05 f1 36 20 00 	lea    0x2036f1(%rip),%r8        # 605520 <gets_buf>
  401e2f:	89 f9                	mov    %edi,%ecx
  401e31:	48 8d 35 ea 15 00 00 	lea    0x15ea(%rip),%rsi        # 403422 <_IO_stdin_used+0x462>
  401e38:	bf 01 00 00 00       	mov    $0x1,%edi
  401e3d:	b8 00 00 00 00       	mov    $0x0,%eax
  401e42:	e8 99 ef ff ff       	callq  400de0 <__printf_chk@plt>
  401e47:	5b                   	pop    %rbx
  401e48:	c3                   	retq   
  401e49:	48 8d 3d b4 15 00 00 	lea    0x15b4(%rip),%rdi        # 403404 <_IO_stdin_used+0x444>
  401e50:	e8 6b ee ff ff       	callq  400cc0 <puts@plt>
  401e55:	b8 00 00 00 00       	mov    $0x0,%eax
  401e5a:	e8 fc fc ff ff       	callq  401b5b <check_fail>
  401e5f:	89 f9                	mov    %edi,%ecx
  401e61:	48 8d 35 d8 16 00 00 	lea    0x16d8(%rip),%rsi        # 403540 <_IO_stdin_used+0x580>
  401e68:	bf 01 00 00 00       	mov    $0x1,%edi
  401e6d:	b8 00 00 00 00       	mov    $0x0,%eax
  401e72:	e8 69 ef ff ff       	callq  400de0 <__printf_chk@plt>
  401e77:	b8 00 00 00 00       	mov    $0x0,%eax
  401e7c:	e8 da fc ff ff       	callq  401b5b <check_fail>
  401e81:	39 3d 75 36 20 00    	cmp    %edi,0x203675(%rip)        # 6054fc <vlevel>
  401e87:	74 1a                	je     401ea3 <validate+0xa0>
  401e89:	48 8d 3d 74 15 00 00 	lea    0x1574(%rip),%rdi        # 403404 <_IO_stdin_used+0x444>
  401e90:	e8 2b ee ff ff       	callq  400cc0 <puts@plt>
  401e95:	89 de                	mov    %ebx,%esi
  401e97:	bf 00 00 00 00       	mov    $0x0,%edi
  401e9c:	e8 44 fd ff ff       	callq  401be5 <notify_server>
  401ea1:	eb a4                	jmp    401e47 <validate+0x44>
  401ea3:	0f be 0d 7e 42 20 00 	movsbl 0x20427e(%rip),%ecx        # 606128 <target_prefix>
  401eaa:	89 fa                	mov    %edi,%edx
  401eac:	48 8d 35 b5 16 00 00 	lea    0x16b5(%rip),%rsi        # 403568 <_IO_stdin_used+0x5a8>
  401eb3:	bf 01 00 00 00       	mov    $0x1,%edi
  401eb8:	b8 00 00 00 00       	mov    $0x0,%eax
  401ebd:	e8 1e ef ff ff       	callq  400de0 <__printf_chk@plt>
  401ec2:	89 de                	mov    %ebx,%esi
  401ec4:	bf 01 00 00 00       	mov    $0x1,%edi
  401ec9:	e8 17 fd ff ff       	callq  401be5 <notify_server>
  401ece:	e9 74 ff ff ff       	jmpq   401e47 <validate+0x44>

0000000000401ed3 <fail>:
  401ed3:	48 83 ec 08          	sub    $0x8,%rsp
  401ed7:	83 3d 2a 36 20 00 00 	cmpl   $0x0,0x20362a(%rip)        # 605508 <is_checker>
  401ede:	75 11                	jne    401ef1 <fail+0x1e>
  401ee0:	89 fe                	mov    %edi,%esi
  401ee2:	bf 00 00 00 00       	mov    $0x0,%edi
  401ee7:	e8 f9 fc ff ff       	callq  401be5 <notify_server>
  401eec:	48 83 c4 08          	add    $0x8,%rsp
  401ef0:	c3                   	retq   
  401ef1:	b8 00 00 00 00       	mov    $0x0,%eax
  401ef6:	e8 60 fc ff ff       	callq  401b5b <check_fail>

0000000000401efb <bushandler>:
  401efb:	48 83 ec 08          	sub    $0x8,%rsp
  401eff:	83 3d 02 36 20 00 00 	cmpl   $0x0,0x203602(%rip)        # 605508 <is_checker>
  401f06:	74 16                	je     401f1e <bushandler+0x23>
  401f08:	48 8d 3d 28 15 00 00 	lea    0x1528(%rip),%rdi        # 403437 <_IO_stdin_used+0x477>
  401f0f:	e8 ac ed ff ff       	callq  400cc0 <puts@plt>
  401f14:	b8 00 00 00 00       	mov    $0x0,%eax
  401f19:	e8 3d fc ff ff       	callq  401b5b <check_fail>
  401f1e:	48 8d 3d 7b 16 00 00 	lea    0x167b(%rip),%rdi        # 4035a0 <_IO_stdin_used+0x5e0>
  401f25:	e8 96 ed ff ff       	callq  400cc0 <puts@plt>
  401f2a:	48 8d 3d 10 15 00 00 	lea    0x1510(%rip),%rdi        # 403441 <_IO_stdin_used+0x481>
  401f31:	e8 8a ed ff ff       	callq  400cc0 <puts@plt>
  401f36:	be 00 00 00 00       	mov    $0x0,%esi
  401f3b:	bf 00 00 00 00       	mov    $0x0,%edi
  401f40:	e8 a0 fc ff ff       	callq  401be5 <notify_server>
  401f45:	bf 01 00 00 00       	mov    $0x1,%edi
  401f4a:	e8 e1 ee ff ff       	callq  400e30 <exit@plt>

0000000000401f4f <seghandler>:
  401f4f:	48 83 ec 08          	sub    $0x8,%rsp
  401f53:	83 3d ae 35 20 00 00 	cmpl   $0x0,0x2035ae(%rip)        # 605508 <is_checker>
  401f5a:	74 16                	je     401f72 <seghandler+0x23>
  401f5c:	48 8d 3d f4 14 00 00 	lea    0x14f4(%rip),%rdi        # 403457 <_IO_stdin_used+0x497>
  401f63:	e8 58 ed ff ff       	callq  400cc0 <puts@plt>
  401f68:	b8 00 00 00 00       	mov    $0x0,%eax
  401f6d:	e8 e9 fb ff ff       	callq  401b5b <check_fail>
  401f72:	48 8d 3d 47 16 00 00 	lea    0x1647(%rip),%rdi        # 4035c0 <_IO_stdin_used+0x600>
  401f79:	e8 42 ed ff ff       	callq  400cc0 <puts@plt>
  401f7e:	48 8d 3d bc 14 00 00 	lea    0x14bc(%rip),%rdi        # 403441 <_IO_stdin_used+0x481>
  401f85:	e8 36 ed ff ff       	callq  400cc0 <puts@plt>
  401f8a:	be 00 00 00 00       	mov    $0x0,%esi
  401f8f:	bf 00 00 00 00       	mov    $0x0,%edi
  401f94:	e8 4c fc ff ff       	callq  401be5 <notify_server>
  401f99:	bf 01 00 00 00       	mov    $0x1,%edi
  401f9e:	e8 8d ee ff ff       	callq  400e30 <exit@plt>

0000000000401fa3 <illegalhandler>:
  401fa3:	48 83 ec 08          	sub    $0x8,%rsp
  401fa7:	83 3d 5a 35 20 00 00 	cmpl   $0x0,0x20355a(%rip)        # 605508 <is_checker>
  401fae:	74 16                	je     401fc6 <illegalhandler+0x23>
  401fb0:	48 8d 3d b3 14 00 00 	lea    0x14b3(%rip),%rdi        # 40346a <_IO_stdin_used+0x4aa>
  401fb7:	e8 04 ed ff ff       	callq  400cc0 <puts@plt>
  401fbc:	b8 00 00 00 00       	mov    $0x0,%eax
  401fc1:	e8 95 fb ff ff       	callq  401b5b <check_fail>
  401fc6:	48 8d 3d 1b 16 00 00 	lea    0x161b(%rip),%rdi        # 4035e8 <_IO_stdin_used+0x628>
  401fcd:	e8 ee ec ff ff       	callq  400cc0 <puts@plt>
  401fd2:	48 8d 3d 68 14 00 00 	lea    0x1468(%rip),%rdi        # 403441 <_IO_stdin_used+0x481>
  401fd9:	e8 e2 ec ff ff       	callq  400cc0 <puts@plt>
  401fde:	be 00 00 00 00       	mov    $0x0,%esi
  401fe3:	bf 00 00 00 00       	mov    $0x0,%edi
  401fe8:	e8 f8 fb ff ff       	callq  401be5 <notify_server>
  401fed:	bf 01 00 00 00       	mov    $0x1,%edi
  401ff2:	e8 39 ee ff ff       	callq  400e30 <exit@plt>

0000000000401ff7 <sigalrmhandler>:
  401ff7:	48 83 ec 08          	sub    $0x8,%rsp
  401ffb:	83 3d 06 35 20 00 00 	cmpl   $0x0,0x203506(%rip)        # 605508 <is_checker>
  402002:	74 16                	je     40201a <sigalrmhandler+0x23>
  402004:	48 8d 3d 73 14 00 00 	lea    0x1473(%rip),%rdi        # 40347e <_IO_stdin_used+0x4be>
  40200b:	e8 b0 ec ff ff       	callq  400cc0 <puts@plt>
  402010:	b8 00 00 00 00       	mov    $0x0,%eax
  402015:	e8 41 fb ff ff       	callq  401b5b <check_fail>
  40201a:	ba 05 00 00 00       	mov    $0x5,%edx
  40201f:	48 8d 35 f2 15 00 00 	lea    0x15f2(%rip),%rsi        # 403618 <_IO_stdin_used+0x658>
  402026:	bf 01 00 00 00       	mov    $0x1,%edi
  40202b:	b8 00 00 00 00       	mov    $0x0,%eax
  402030:	e8 ab ed ff ff       	callq  400de0 <__printf_chk@plt>
  402035:	be 00 00 00 00       	mov    $0x0,%esi
  40203a:	bf 00 00 00 00       	mov    $0x0,%edi
  40203f:	e8 a1 fb ff ff       	callq  401be5 <notify_server>
  402044:	bf 01 00 00 00       	mov    $0x1,%edi
  402049:	e8 e2 ed ff ff       	callq  400e30 <exit@plt>

000000000040204e <launch>:
  40204e:	55                   	push   %rbp
  40204f:	48 89 e5             	mov    %rsp,%rbp
  402052:	48 83 ec 10          	sub    $0x10,%rsp
  402056:	48 89 fa             	mov    %rdi,%rdx
  402059:	64 48 8b 04 25 28 00 	mov    %fs:0x28,%rax
  402060:	00 00 
  402062:	48 89 45 f8          	mov    %rax,-0x8(%rbp)
  402066:	31 c0                	xor    %eax,%eax
  402068:	48 8d 47 1e          	lea    0x1e(%rdi),%rax
  40206c:	48 83 e0 f0          	and    $0xfffffffffffffff0,%rax
  402070:	48 29 c4             	sub    %rax,%rsp
  402073:	48 8d 7c 24 0f       	lea    0xf(%rsp),%rdi
  402078:	48 83 e7 f0          	and    $0xfffffffffffffff0,%rdi
  40207c:	be f4 00 00 00       	mov    $0xf4,%esi
  402081:	e8 7a ec ff ff       	callq  400d00 <memset@plt>
  402086:	48 8b 05 13 34 20 00 	mov    0x203413(%rip),%rax        # 6054a0 <stdin@@GLIBC_2.2.5>
  40208d:	48 39 05 5c 34 20 00 	cmp    %rax,0x20345c(%rip)        # 6054f0 <infile>
  402094:	74 3a                	je     4020d0 <launch+0x82>
  402096:	c7 05 5c 34 20 00 00 	movl   $0x0,0x20345c(%rip)        # 6054fc <vlevel>
  40209d:	00 00 00 
  4020a0:	b8 00 00 00 00       	mov    $0x0,%eax
  4020a5:	e8 f0 f8 ff ff       	callq  40199a <test>
  4020aa:	83 3d 57 34 20 00 00 	cmpl   $0x0,0x203457(%rip)        # 605508 <is_checker>
  4020b1:	75 35                	jne    4020e8 <launch+0x9a>
  4020b3:	48 8d 3d e4 13 00 00 	lea    0x13e4(%rip),%rdi        # 40349e <_IO_stdin_used+0x4de>
  4020ba:	e8 01 ec ff ff       	callq  400cc0 <puts@plt>
  4020bf:	48 8b 45 f8          	mov    -0x8(%rbp),%rax
  4020c3:	64 48 33 04 25 28 00 	xor    %fs:0x28,%rax
  4020ca:	00 00 
  4020cc:	75 30                	jne    4020fe <launch+0xb0>
  4020ce:	c9                   	leaveq 
  4020cf:	c3                   	retq   
  4020d0:	48 8d 35 af 13 00 00 	lea    0x13af(%rip),%rsi        # 403486 <_IO_stdin_used+0x4c6>
  4020d7:	bf 01 00 00 00       	mov    $0x1,%edi
  4020dc:	b8 00 00 00 00       	mov    $0x0,%eax
  4020e1:	e8 fa ec ff ff       	callq  400de0 <__printf_chk@plt>
  4020e6:	eb ae                	jmp    402096 <launch+0x48>
  4020e8:	48 8d 3d a4 13 00 00 	lea    0x13a4(%rip),%rdi        # 403493 <_IO_stdin_used+0x4d3>
  4020ef:	e8 cc eb ff ff       	callq  400cc0 <puts@plt>
  4020f4:	b8 00 00 00 00       	mov    $0x0,%eax
  4020f9:	e8 5d fa ff ff       	callq  401b5b <check_fail>
  4020fe:	e8 dd eb ff ff       	callq  400ce0 <__stack_chk_fail@plt>

0000000000402103 <stable_launch>:
  402103:	53                   	push   %rbx
  402104:	48 89 3d dd 33 20 00 	mov    %rdi,0x2033dd(%rip)        # 6054e8 <global_offset>
  40210b:	41 b9 00 00 00 00    	mov    $0x0,%r9d
  402111:	41 b8 00 00 00 00    	mov    $0x0,%r8d
  402117:	b9 32 01 00 00       	mov    $0x132,%ecx
  40211c:	ba 07 00 00 00       	mov    $0x7,%edx
  402121:	be 00 00 10 00       	mov    $0x100000,%esi
  402126:	bf 00 60 58 55       	mov    $0x55586000,%edi
  40212b:	e8 c0 eb ff ff       	callq  400cf0 <mmap@plt>
  402130:	48 89 c3             	mov    %rax,%rbx
  402133:	48 3d 00 60 58 55    	cmp    $0x55586000,%rax
  402139:	75 43                	jne    40217e <stable_launch+0x7b>
  40213b:	48 8d 90 f8 ff 0f 00 	lea    0xffff8(%rax),%rdx
  402142:	48 89 15 e7 3f 20 00 	mov    %rdx,0x203fe7(%rip)        # 606130 <stack_top>
  402149:	48 89 e0             	mov    %rsp,%rax
  40214c:	48 89 d4             	mov    %rdx,%rsp
  40214f:	48 89 c2             	mov    %rax,%rdx
  402152:	48 89 15 87 33 20 00 	mov    %rdx,0x203387(%rip)        # 6054e0 <global_save_stack>
  402159:	48 8b 3d 88 33 20 00 	mov    0x203388(%rip),%rdi        # 6054e8 <global_offset>
  402160:	e8 e9 fe ff ff       	callq  40204e <launch>
  402165:	48 8b 05 74 33 20 00 	mov    0x203374(%rip),%rax        # 6054e0 <global_save_stack>
  40216c:	48 89 c4             	mov    %rax,%rsp
  40216f:	be 00 00 10 00       	mov    $0x100000,%esi
  402174:	48 89 df             	mov    %rbx,%rdi
  402177:	e8 54 ec ff ff       	callq  400dd0 <munmap@plt>
  40217c:	5b                   	pop    %rbx
  40217d:	c3                   	retq   
  40217e:	be 00 00 10 00       	mov    $0x100000,%esi
  402183:	48 89 c7             	mov    %rax,%rdi
  402186:	e8 45 ec ff ff       	callq  400dd0 <munmap@plt>
  40218b:	b9 00 60 58 55       	mov    $0x55586000,%ecx
  402190:	48 8d 15 b9 14 00 00 	lea    0x14b9(%rip),%rdx        # 403650 <_IO_stdin_used+0x690>
  402197:	be 01 00 00 00       	mov    $0x1,%esi
  40219c:	48 8b 3d 1d 33 20 00 	mov    0x20331d(%rip),%rdi        # 6054c0 <stderr@@GLIBC_2.2.5>
  4021a3:	b8 00 00 00 00       	mov    $0x0,%eax
  4021a8:	e8 a3 ec ff ff       	callq  400e50 <__fprintf_chk@plt>
  4021ad:	bf 01 00 00 00       	mov    $0x1,%edi
  4021b2:	e8 79 ec ff ff       	callq  400e30 <exit@plt>

00000000004021b7 <rio_readinitb>:
  4021b7:	89 37                	mov    %esi,(%rdi)
  4021b9:	c7 47 04 00 00 00 00 	movl   $0x0,0x4(%rdi)
  4021c0:	48 8d 47 10          	lea    0x10(%rdi),%rax
  4021c4:	48 89 47 08          	mov    %rax,0x8(%rdi)
  4021c8:	c3                   	retq   

00000000004021c9 <sigalrm_handler>:
  4021c9:	48 83 ec 08          	sub    $0x8,%rsp
  4021cd:	b9 00 00 00 00       	mov    $0x0,%ecx
  4021d2:	48 8d 15 b7 14 00 00 	lea    0x14b7(%rip),%rdx        # 403690 <trans_char+0x10>
  4021d9:	be 01 00 00 00       	mov    $0x1,%esi
  4021de:	48 8b 3d db 32 20 00 	mov    0x2032db(%rip),%rdi        # 6054c0 <stderr@@GLIBC_2.2.5>
  4021e5:	b8 00 00 00 00       	mov    $0x0,%eax
  4021ea:	e8 61 ec ff ff       	callq  400e50 <__fprintf_chk@plt>
  4021ef:	bf 01 00 00 00       	mov    $0x1,%edi
  4021f4:	e8 37 ec ff ff       	callq  400e30 <exit@plt>

00000000004021f9 <rio_writen>:
  4021f9:	41 55                	push   %r13
  4021fb:	41 54                	push   %r12
  4021fd:	55                   	push   %rbp
  4021fe:	53                   	push   %rbx
  4021ff:	48 83 ec 08          	sub    $0x8,%rsp
  402203:	41 89 fc             	mov    %edi,%r12d
  402206:	48 89 f5             	mov    %rsi,%rbp
  402209:	49 89 d5             	mov    %rdx,%r13
  40220c:	48 89 d3             	mov    %rdx,%rbx
  40220f:	eb 06                	jmp    402217 <rio_writen+0x1e>
  402211:	48 29 c3             	sub    %rax,%rbx
  402214:	48 01 c5             	add    %rax,%rbp
  402217:	48 85 db             	test   %rbx,%rbx
  40221a:	74 24                	je     402240 <rio_writen+0x47>
  40221c:	48 89 da             	mov    %rbx,%rdx
  40221f:	48 89 ee             	mov    %rbp,%rsi
  402222:	44 89 e7             	mov    %r12d,%edi
  402225:	e8 a6 ea ff ff       	callq  400cd0 <write@plt>
  40222a:	48 85 c0             	test   %rax,%rax
  40222d:	7f e2                	jg     402211 <rio_writen+0x18>
  40222f:	e8 4c ea ff ff       	callq  400c80 <__errno_location@plt>
  402234:	83 38 04             	cmpl   $0x4,(%rax)
  402237:	75 15                	jne    40224e <rio_writen+0x55>
  402239:	b8 00 00 00 00       	mov    $0x0,%eax
  40223e:	eb d1                	jmp    402211 <rio_writen+0x18>
  402240:	4c 89 e8             	mov    %r13,%rax
  402243:	48 83 c4 08          	add    $0x8,%rsp
  402247:	5b                   	pop    %rbx
  402248:	5d                   	pop    %rbp
  402249:	41 5c                	pop    %r12
  40224b:	41 5d                	pop    %r13
  40224d:	c3                   	retq   
  40224e:	48 c7 c0 ff ff ff ff 	mov    $0xffffffffffffffff,%rax
  402255:	eb ec                	jmp    402243 <rio_writen+0x4a>

0000000000402257 <rio_read>:
  402257:	41 55                	push   %r13
  402259:	41 54                	push   %r12
  40225b:	55                   	push   %rbp
  40225c:	53                   	push   %rbx
  40225d:	48 83 ec 08          	sub    $0x8,%rsp
  402261:	48 89 fb             	mov    %rdi,%rbx
  402264:	49 89 f5             	mov    %rsi,%r13
  402267:	49 89 d4             	mov    %rdx,%r12
  40226a:	eb 0a                	jmp    402276 <rio_read+0x1f>
  40226c:	e8 0f ea ff ff       	callq  400c80 <__errno_location@plt>
  402271:	83 38 04             	cmpl   $0x4,(%rax)
  402274:	75 5c                	jne    4022d2 <rio_read+0x7b>
  402276:	8b 6b 04             	mov    0x4(%rbx),%ebp
  402279:	85 ed                	test   %ebp,%ebp
  40227b:	7f 24                	jg     4022a1 <rio_read+0x4a>
  40227d:	48 8d 6b 10          	lea    0x10(%rbx),%rbp
  402281:	8b 3b                	mov    (%rbx),%edi
  402283:	ba 00 20 00 00       	mov    $0x2000,%edx
  402288:	48 89 ee             	mov    %rbp,%rsi
  40228b:	e8 a0 ea ff ff       	callq  400d30 <read@plt>
  402290:	89 43 04             	mov    %eax,0x4(%rbx)
  402293:	85 c0                	test   %eax,%eax
  402295:	78 d5                	js     40226c <rio_read+0x15>
  402297:	85 c0                	test   %eax,%eax
  402299:	74 40                	je     4022db <rio_read+0x84>
  40229b:	48 89 6b 08          	mov    %rbp,0x8(%rbx)
  40229f:	eb d5                	jmp    402276 <rio_read+0x1f>
  4022a1:	89 e8                	mov    %ebp,%eax
  4022a3:	4c 39 e0             	cmp    %r12,%rax
  4022a6:	72 03                	jb     4022ab <rio_read+0x54>
  4022a8:	44 89 e5             	mov    %r12d,%ebp
  4022ab:	4c 63 e5             	movslq %ebp,%r12
  4022ae:	48 8b 73 08          	mov    0x8(%rbx),%rsi
  4022b2:	4c 89 e2             	mov    %r12,%rdx
  4022b5:	4c 89 ef             	mov    %r13,%rdi
  4022b8:	e8 c3 ea ff ff       	callq  400d80 <memcpy@plt>
  4022bd:	4c 01 63 08          	add    %r12,0x8(%rbx)
  4022c1:	29 6b 04             	sub    %ebp,0x4(%rbx)
  4022c4:	4c 89 e0             	mov    %r12,%rax
  4022c7:	48 83 c4 08          	add    $0x8,%rsp
  4022cb:	5b                   	pop    %rbx
  4022cc:	5d                   	pop    %rbp
  4022cd:	41 5c                	pop    %r12
  4022cf:	41 5d                	pop    %r13
  4022d1:	c3                   	retq   
  4022d2:	48 c7 c0 ff ff ff ff 	mov    $0xffffffffffffffff,%rax
  4022d9:	eb ec                	jmp    4022c7 <rio_read+0x70>
  4022db:	b8 00 00 00 00       	mov    $0x0,%eax
  4022e0:	eb e5                	jmp    4022c7 <rio_read+0x70>

00000000004022e2 <rio_readlineb>:
  4022e2:	41 55                	push   %r13
  4022e4:	41 54                	push   %r12
  4022e6:	55                   	push   %rbp
  4022e7:	53                   	push   %rbx
  4022e8:	48 83 ec 18          	sub    $0x18,%rsp
  4022ec:	49 89 fd             	mov    %rdi,%r13
  4022ef:	48 89 f5             	mov    %rsi,%rbp
  4022f2:	49 89 d4             	mov    %rdx,%r12
  4022f5:	64 48 8b 04 25 28 00 	mov    %fs:0x28,%rax
  4022fc:	00 00 
  4022fe:	48 89 44 24 08       	mov    %rax,0x8(%rsp)
  402303:	31 c0                	xor    %eax,%eax
  402305:	bb 01 00 00 00       	mov    $0x1,%ebx
  40230a:	4c 39 e3             	cmp    %r12,%rbx
  40230d:	73 47                	jae    402356 <rio_readlineb+0x74>
  40230f:	48 8d 74 24 07       	lea    0x7(%rsp),%rsi
  402314:	ba 01 00 00 00       	mov    $0x1,%edx
  402319:	4c 89 ef             	mov    %r13,%rdi
  40231c:	e8 36 ff ff ff       	callq  402257 <rio_read>
  402321:	83 f8 01             	cmp    $0x1,%eax
  402324:	75 1c                	jne    402342 <rio_readlineb+0x60>
  402326:	48 8d 45 01          	lea    0x1(%rbp),%rax
  40232a:	0f b6 54 24 07       	movzbl 0x7(%rsp),%edx
  40232f:	88 55 00             	mov    %dl,0x0(%rbp)
  402332:	80 7c 24 07 0a       	cmpb   $0xa,0x7(%rsp)
  402337:	74 1a                	je     402353 <rio_readlineb+0x71>
  402339:	48 83 c3 01          	add    $0x1,%rbx
  40233d:	48 89 c5             	mov    %rax,%rbp
  402340:	eb c8                	jmp    40230a <rio_readlineb+0x28>
  402342:	85 c0                	test   %eax,%eax
  402344:	75 32                	jne    402378 <rio_readlineb+0x96>
  402346:	48 83 fb 01          	cmp    $0x1,%rbx
  40234a:	75 0a                	jne    402356 <rio_readlineb+0x74>
  40234c:	b8 00 00 00 00       	mov    $0x0,%eax
  402351:	eb 0a                	jmp    40235d <rio_readlineb+0x7b>
  402353:	48 89 c5             	mov    %rax,%rbp
  402356:	c6 45 00 00          	movb   $0x0,0x0(%rbp)
  40235a:	48 89 d8             	mov    %rbx,%rax
  40235d:	48 8b 4c 24 08       	mov    0x8(%rsp),%rcx
  402362:	64 48 33 0c 25 28 00 	xor    %fs:0x28,%rcx
  402369:	00 00 
  40236b:	75 14                	jne    402381 <rio_readlineb+0x9f>
  40236d:	48 83 c4 18          	add    $0x18,%rsp
  402371:	5b                   	pop    %rbx
  402372:	5d                   	pop    %rbp
  402373:	41 5c                	pop    %r12
  402375:	41 5d                	pop    %r13
  402377:	c3                   	retq   
  402378:	48 c7 c0 ff ff ff ff 	mov    $0xffffffffffffffff,%rax
  40237f:	eb dc                	jmp    40235d <rio_readlineb+0x7b>
  402381:	e8 5a e9 ff ff       	callq  400ce0 <__stack_chk_fail@plt>

0000000000402386 <urlencode>:
  402386:	41 54                	push   %r12
  402388:	55                   	push   %rbp
  402389:	53                   	push   %rbx
  40238a:	48 83 ec 10          	sub    $0x10,%rsp
  40238e:	48 89 fb             	mov    %rdi,%rbx
  402391:	48 89 f5             	mov    %rsi,%rbp
  402394:	64 48 8b 04 25 28 00 	mov    %fs:0x28,%rax
  40239b:	00 00 
  40239d:	48 89 44 24 08       	mov    %rax,0x8(%rsp)
  4023a2:	31 c0                	xor    %eax,%eax
  4023a4:	48 c7 c1 ff ff ff ff 	mov    $0xffffffffffffffff,%rcx
  4023ab:	f2 ae                	repnz scas %es:(%rdi),%al
  4023ad:	48 89 ce             	mov    %rcx,%rsi
  4023b0:	48 f7 d6             	not    %rsi
  4023b3:	8d 46 ff             	lea    -0x1(%rsi),%eax
  4023b6:	eb 0f                	jmp    4023c7 <urlencode+0x41>
  4023b8:	44 88 45 00          	mov    %r8b,0x0(%rbp)
  4023bc:	48 8d 6d 01          	lea    0x1(%rbp),%rbp
  4023c0:	48 83 c3 01          	add    $0x1,%rbx
  4023c4:	44 89 e0             	mov    %r12d,%eax
  4023c7:	44 8d 60 ff          	lea    -0x1(%rax),%r12d
  4023cb:	85 c0                	test   %eax,%eax
  4023cd:	0f 84 a8 00 00 00    	je     40247b <urlencode+0xf5>
  4023d3:	44 0f b6 03          	movzbl (%rbx),%r8d
  4023d7:	41 80 f8 2a          	cmp    $0x2a,%r8b
  4023db:	0f 94 c2             	sete   %dl
  4023de:	41 80 f8 2d          	cmp    $0x2d,%r8b
  4023e2:	0f 94 c0             	sete   %al
  4023e5:	08 c2                	or     %al,%dl
  4023e7:	75 cf                	jne    4023b8 <urlencode+0x32>
  4023e9:	41 80 f8 2e          	cmp    $0x2e,%r8b
  4023ed:	74 c9                	je     4023b8 <urlencode+0x32>
  4023ef:	41 80 f8 5f          	cmp    $0x5f,%r8b
  4023f3:	74 c3                	je     4023b8 <urlencode+0x32>
  4023f5:	41 8d 40 d0          	lea    -0x30(%r8),%eax
  4023f9:	3c 09                	cmp    $0x9,%al
  4023fb:	76 bb                	jbe    4023b8 <urlencode+0x32>
  4023fd:	41 8d 40 bf          	lea    -0x41(%r8),%eax
  402401:	3c 19                	cmp    $0x19,%al
  402403:	76 b3                	jbe    4023b8 <urlencode+0x32>
  402405:	41 8d 40 9f          	lea    -0x61(%r8),%eax
  402409:	3c 19                	cmp    $0x19,%al
  40240b:	76 ab                	jbe    4023b8 <urlencode+0x32>
  40240d:	41 80 f8 20          	cmp    $0x20,%r8b
  402411:	74 56                	je     402469 <urlencode+0xe3>
  402413:	41 8d 40 e0          	lea    -0x20(%r8),%eax
  402417:	3c 5f                	cmp    $0x5f,%al
  402419:	0f 96 c2             	setbe  %dl
  40241c:	41 80 f8 09          	cmp    $0x9,%r8b
  402420:	0f 94 c0             	sete   %al
  402423:	08 c2                	or     %al,%dl
  402425:	74 4f                	je     402476 <urlencode+0xf0>
  402427:	48 89 e7             	mov    %rsp,%rdi
  40242a:	45 0f b6 c0          	movzbl %r8b,%r8d
  40242e:	48 8d 0d f3 12 00 00 	lea    0x12f3(%rip),%rcx        # 403728 <trans_char+0xa8>
  402435:	ba 08 00 00 00       	mov    $0x8,%edx
  40243a:	be 01 00 00 00       	mov    $0x1,%esi
  40243f:	b8 00 00 00 00       	mov    $0x0,%eax
  402444:	e8 17 ea ff ff       	callq  400e60 <__sprintf_chk@plt>
  402449:	0f b6 04 24          	movzbl (%rsp),%eax
  40244d:	88 45 00             	mov    %al,0x0(%rbp)
  402450:	0f b6 44 24 01       	movzbl 0x1(%rsp),%eax
  402455:	88 45 01             	mov    %al,0x1(%rbp)
  402458:	0f b6 44 24 02       	movzbl 0x2(%rsp),%eax
  40245d:	88 45 02             	mov    %al,0x2(%rbp)
  402460:	48 8d 6d 03          	lea    0x3(%rbp),%rbp
  402464:	e9 57 ff ff ff       	jmpq   4023c0 <urlencode+0x3a>
  402469:	c6 45 00 2b          	movb   $0x2b,0x0(%rbp)
  40246d:	48 8d 6d 01          	lea    0x1(%rbp),%rbp
  402471:	e9 4a ff ff ff       	jmpq   4023c0 <urlencode+0x3a>
  402476:	b8 ff ff ff ff       	mov    $0xffffffff,%eax
  40247b:	48 8b 74 24 08       	mov    0x8(%rsp),%rsi
  402480:	64 48 33 34 25 28 00 	xor    %fs:0x28,%rsi
  402487:	00 00 
  402489:	75 09                	jne    402494 <urlencode+0x10e>
  40248b:	48 83 c4 10          	add    $0x10,%rsp
  40248f:	5b                   	pop    %rbx
  402490:	5d                   	pop    %rbp
  402491:	41 5c                	pop    %r12
  402493:	c3                   	retq   
  402494:	e8 47 e8 ff ff       	callq  400ce0 <__stack_chk_fail@plt>

0000000000402499 <submitr>:
  402499:	41 57                	push   %r15
  40249b:	41 56                	push   %r14
  40249d:	41 55                	push   %r13
  40249f:	41 54                	push   %r12
  4024a1:	55                   	push   %rbp
  4024a2:	53                   	push   %rbx
  4024a3:	48 81 ec 68 a0 00 00 	sub    $0xa068,%rsp
  4024aa:	49 89 fd             	mov    %rdi,%r13
  4024ad:	89 74 24 14          	mov    %esi,0x14(%rsp)
  4024b1:	49 89 d7             	mov    %rdx,%r15
  4024b4:	48 89 4c 24 08       	mov    %rcx,0x8(%rsp)
  4024b9:	4c 89 44 24 18       	mov    %r8,0x18(%rsp)
  4024be:	4d 89 ce             	mov    %r9,%r14
  4024c1:	48 8b ac 24 a0 a0 00 	mov    0xa0a0(%rsp),%rbp
  4024c8:	00 
  4024c9:	64 48 8b 04 25 28 00 	mov    %fs:0x28,%rax
  4024d0:	00 00 
  4024d2:	48 89 84 24 58 a0 00 	mov    %rax,0xa058(%rsp)
  4024d9:	00 
  4024da:	31 c0                	xor    %eax,%eax
  4024dc:	c7 44 24 2c 00 00 00 	movl   $0x0,0x2c(%rsp)
  4024e3:	00 
  4024e4:	ba 00 00 00 00       	mov    $0x0,%edx
  4024e9:	be 01 00 00 00       	mov    $0x1,%esi
  4024ee:	bf 02 00 00 00       	mov    $0x2,%edi
  4024f3:	e8 78 e9 ff ff       	callq  400e70 <socket@plt>
  4024f8:	85 c0                	test   %eax,%eax
  4024fa:	0f 88 a9 02 00 00    	js     4027a9 <submitr+0x310>
  402500:	89 c3                	mov    %eax,%ebx
  402502:	4c 89 ef             	mov    %r13,%rdi
  402505:	e8 46 e8 ff ff       	callq  400d50 <gethostbyname@plt>
  40250a:	48 85 c0             	test   %rax,%rax
  40250d:	0f 84 e2 02 00 00    	je     4027f5 <submitr+0x35c>
  402513:	4c 8d 64 24 30       	lea    0x30(%rsp),%r12
  402518:	48 c7 44 24 32 00 00 	movq   $0x0,0x32(%rsp)
  40251f:	00 00 
  402521:	c7 44 24 3a 00 00 00 	movl   $0x0,0x3a(%rsp)
  402528:	00 
  402529:	66 c7 44 24 3e 00 00 	movw   $0x0,0x3e(%rsp)
  402530:	66 c7 44 24 30 02 00 	movw   $0x2,0x30(%rsp)
  402537:	48 63 50 14          	movslq 0x14(%rax),%rdx
  40253b:	48 8b 40 18          	mov    0x18(%rax),%rax
  40253f:	48 8b 30             	mov    (%rax),%rsi
  402542:	48 8d 7c 24 34       	lea    0x34(%rsp),%rdi
  402547:	b9 0c 00 00 00       	mov    $0xc,%ecx
  40254c:	e8 0f e8 ff ff       	callq  400d60 <__memmove_chk@plt>
  402551:	0f b7 44 24 14       	movzwl 0x14(%rsp),%eax
  402556:	66 c1 c8 08          	ror    $0x8,%ax
  40255a:	66 89 44 24 32       	mov    %ax,0x32(%rsp)
  40255f:	ba 10 00 00 00       	mov    $0x10,%edx
  402564:	4c 89 e6             	mov    %r12,%rsi
  402567:	89 df                	mov    %ebx,%edi
  402569:	e8 d2 e8 ff ff       	callq  400e40 <connect@plt>
  40256e:	85 c0                	test   %eax,%eax
  402570:	0f 88 e7 02 00 00    	js     40285d <submitr+0x3c4>
  402576:	48 c7 c6 ff ff ff ff 	mov    $0xffffffffffffffff,%rsi
  40257d:	b8 00 00 00 00       	mov    $0x0,%eax
  402582:	48 89 f1             	mov    %rsi,%rcx
  402585:	4c 89 f7             	mov    %r14,%rdi
  402588:	f2 ae                	repnz scas %es:(%rdi),%al
  40258a:	48 89 ca             	mov    %rcx,%rdx
  40258d:	48 f7 d2             	not    %rdx
  402590:	48 89 f1             	mov    %rsi,%rcx
  402593:	4c 89 ff             	mov    %r15,%rdi
  402596:	f2 ae                	repnz scas %es:(%rdi),%al
  402598:	48 f7 d1             	not    %rcx
  40259b:	49 89 c8             	mov    %rcx,%r8
  40259e:	48 89 f1             	mov    %rsi,%rcx
  4025a1:	48 8b 7c 24 08       	mov    0x8(%rsp),%rdi
  4025a6:	f2 ae                	repnz scas %es:(%rdi),%al
  4025a8:	48 f7 d1             	not    %rcx
  4025ab:	4d 8d 44 08 fe       	lea    -0x2(%r8,%rcx,1),%r8
  4025b0:	48 89 f1             	mov    %rsi,%rcx
  4025b3:	48 8b 7c 24 18       	mov    0x18(%rsp),%rdi
  4025b8:	f2 ae                	repnz scas %es:(%rdi),%al
  4025ba:	48 89 c8             	mov    %rcx,%rax
  4025bd:	48 f7 d0             	not    %rax
  4025c0:	49 8d 4c 00 ff       	lea    -0x1(%r8,%rax,1),%rcx
  4025c5:	48 8d 44 52 fd       	lea    -0x3(%rdx,%rdx,2),%rax
  4025ca:	48 8d 84 01 80 00 00 	lea    0x80(%rcx,%rax,1),%rax
  4025d1:	00 
  4025d2:	48 3d 00 20 00 00    	cmp    $0x2000,%rax
  4025d8:	0f 87 d9 02 00 00    	ja     4028b7 <submitr+0x41e>
  4025de:	48 8d b4 24 50 40 00 	lea    0x4050(%rsp),%rsi
  4025e5:	00 
  4025e6:	b9 00 04 00 00       	mov    $0x400,%ecx
  4025eb:	b8 00 00 00 00       	mov    $0x0,%eax
  4025f0:	48 89 f7             	mov    %rsi,%rdi
  4025f3:	f3 48 ab             	rep stos %rax,%es:(%rdi)
  4025f6:	4c 89 f7             	mov    %r14,%rdi
  4025f9:	e8 88 fd ff ff       	callq  402386 <urlencode>
  4025fe:	85 c0                	test   %eax,%eax
  402600:	0f 88 24 03 00 00    	js     40292a <submitr+0x491>
  402606:	4c 8d a4 24 50 20 00 	lea    0x2050(%rsp),%r12
  40260d:	00 
  40260e:	41 55                	push   %r13
  402610:	48 8d 84 24 58 40 00 	lea    0x4058(%rsp),%rax
  402617:	00 
  402618:	50                   	push   %rax
  402619:	4d 89 f9             	mov    %r15,%r9
  40261c:	4c 8b 44 24 18       	mov    0x18(%rsp),%r8
  402621:	48 8d 0d 90 10 00 00 	lea    0x1090(%rip),%rcx        # 4036b8 <trans_char+0x38>
  402628:	ba 00 20 00 00       	mov    $0x2000,%edx
  40262d:	be 01 00 00 00       	mov    $0x1,%esi
  402632:	4c 89 e7             	mov    %r12,%rdi
  402635:	b8 00 00 00 00       	mov    $0x0,%eax
  40263a:	e8 21 e8 ff ff       	callq  400e60 <__sprintf_chk@plt>
  40263f:	48 c7 c1 ff ff ff ff 	mov    $0xffffffffffffffff,%rcx
  402646:	b8 00 00 00 00       	mov    $0x0,%eax
  40264b:	4c 89 e7             	mov    %r12,%rdi
  40264e:	f2 ae                	repnz scas %es:(%rdi),%al
  402650:	48 89 ca             	mov    %rcx,%rdx
  402653:	48 f7 d2             	not    %rdx
  402656:	48 8d 52 ff          	lea    -0x1(%rdx),%rdx
  40265a:	4c 89 e6             	mov    %r12,%rsi
  40265d:	89 df                	mov    %ebx,%edi
  40265f:	e8 95 fb ff ff       	callq  4021f9 <rio_writen>
  402664:	48 83 c4 10          	add    $0x10,%rsp
  402668:	48 85 c0             	test   %rax,%rax
  40266b:	0f 88 44 03 00 00    	js     4029b5 <submitr+0x51c>
  402671:	4c 8d 64 24 40       	lea    0x40(%rsp),%r12
  402676:	89 de                	mov    %ebx,%esi
  402678:	4c 89 e7             	mov    %r12,%rdi
  40267b:	e8 37 fb ff ff       	callq  4021b7 <rio_readinitb>
  402680:	48 8d b4 24 50 20 00 	lea    0x2050(%rsp),%rsi
  402687:	00 
  402688:	ba 00 20 00 00       	mov    $0x2000,%edx
  40268d:	4c 89 e7             	mov    %r12,%rdi
  402690:	e8 4d fc ff ff       	callq  4022e2 <rio_readlineb>
  402695:	48 85 c0             	test   %rax,%rax
  402698:	0f 8e 86 03 00 00    	jle    402a24 <submitr+0x58b>
  40269e:	48 8d 4c 24 2c       	lea    0x2c(%rsp),%rcx
  4026a3:	48 8d 94 24 50 60 00 	lea    0x6050(%rsp),%rdx
  4026aa:	00 
  4026ab:	48 8d bc 24 50 20 00 	lea    0x2050(%rsp),%rdi
  4026b2:	00 
  4026b3:	4c 8d 84 24 50 80 00 	lea    0x8050(%rsp),%r8
  4026ba:	00 
  4026bb:	48 8d 35 6d 10 00 00 	lea    0x106d(%rip),%rsi        # 40372f <trans_char+0xaf>
  4026c2:	b8 00 00 00 00       	mov    $0x0,%eax
  4026c7:	e8 f4 e6 ff ff       	callq  400dc0 <__isoc99_sscanf@plt>
  4026cc:	48 8d b4 24 50 20 00 	lea    0x2050(%rsp),%rsi
  4026d3:	00 
  4026d4:	b9 03 00 00 00       	mov    $0x3,%ecx
  4026d9:	48 8d 3d 66 10 00 00 	lea    0x1066(%rip),%rdi        # 403746 <trans_char+0xc6>
  4026e0:	f3 a6                	repz cmpsb %es:(%rdi),%ds:(%rsi)
  4026e2:	0f 97 c0             	seta   %al
  4026e5:	1c 00                	sbb    $0x0,%al
  4026e7:	84 c0                	test   %al,%al
  4026e9:	0f 84 b3 03 00 00    	je     402aa2 <submitr+0x609>
  4026ef:	48 8d b4 24 50 20 00 	lea    0x2050(%rsp),%rsi
  4026f6:	00 
  4026f7:	48 8d 7c 24 40       	lea    0x40(%rsp),%rdi
  4026fc:	ba 00 20 00 00       	mov    $0x2000,%edx
  402701:	e8 dc fb ff ff       	callq  4022e2 <rio_readlineb>
  402706:	48 85 c0             	test   %rax,%rax
  402709:	7f c1                	jg     4026cc <submitr+0x233>
  40270b:	48 b8 45 72 72 6f 72 	movabs $0x43203a726f727245,%rax
  402712:	3a 20 43 
  402715:	48 ba 6c 69 65 6e 74 	movabs $0x6e7520746e65696c,%rdx
  40271c:	20 75 6e 
  40271f:	48 89 45 00          	mov    %rax,0x0(%rbp)
  402723:	48 89 55 08          	mov    %rdx,0x8(%rbp)
  402727:	48 b8 61 62 6c 65 20 	movabs $0x206f7420656c6261,%rax
  40272e:	74 6f 20 
  402731:	48 ba 72 65 61 64 20 	movabs $0x6165682064616572,%rdx
  402738:	68 65 61 
  40273b:	48 89 45 10          	mov    %rax,0x10(%rbp)
  40273f:	48 89 55 18          	mov    %rdx,0x18(%rbp)
  402743:	48 b8 64 65 72 73 20 	movabs $0x6f72662073726564,%rax
  40274a:	66 72 6f 
  40274d:	48 ba 6d 20 74 68 65 	movabs $0x657220656874206d,%rdx
  402754:	20 72 65 
  402757:	48 89 45 20          	mov    %rax,0x20(%rbp)
  40275b:	48 89 55 28          	mov    %rdx,0x28(%rbp)
  40275f:	48 b8 73 75 6c 74 20 	movabs $0x72657320746c7573,%rax
  402766:	73 65 72 
  402769:	48 89 45 30          	mov    %rax,0x30(%rbp)
  40276d:	c7 45 38 76 65 72 00 	movl   $0x726576,0x38(%rbp)
  402774:	89 df                	mov    %ebx,%edi
  402776:	e8 a5 e5 ff ff       	callq  400d20 <close@plt>
  40277b:	b8 ff ff ff ff       	mov    $0xffffffff,%eax
  402780:	48 8b 9c 24 58 a0 00 	mov    0xa058(%rsp),%rbx
  402787:	00 
  402788:	64 48 33 1c 25 28 00 	xor    %fs:0x28,%rbx
  40278f:	00 00 
  402791:	0f 85 7e 04 00 00    	jne    402c15 <submitr+0x77c>
  402797:	48 81 c4 68 a0 00 00 	add    $0xa068,%rsp
  40279e:	5b                   	pop    %rbx
  40279f:	5d                   	pop    %rbp
  4027a0:	41 5c                	pop    %r12
  4027a2:	41 5d                	pop    %r13
  4027a4:	41 5e                	pop    %r14
  4027a6:	41 5f                	pop    %r15
  4027a8:	c3                   	retq   
  4027a9:	48 b8 45 72 72 6f 72 	movabs $0x43203a726f727245,%rax
  4027b0:	3a 20 43 
  4027b3:	48 ba 6c 69 65 6e 74 	movabs $0x6e7520746e65696c,%rdx
  4027ba:	20 75 6e 
  4027bd:	48 89 45 00          	mov    %rax,0x0(%rbp)
  4027c1:	48 89 55 08          	mov    %rdx,0x8(%rbp)
  4027c5:	48 b8 61 62 6c 65 20 	movabs $0x206f7420656c6261,%rax
  4027cc:	74 6f 20 
  4027cf:	48 ba 63 72 65 61 74 	movabs $0x7320657461657263,%rdx
  4027d6:	65 20 73 
  4027d9:	48 89 45 10          	mov    %rax,0x10(%rbp)
  4027dd:	48 89 55 18          	mov    %rdx,0x18(%rbp)
  4027e1:	c7 45 20 6f 63 6b 65 	movl   $0x656b636f,0x20(%rbp)
  4027e8:	66 c7 45 24 74 00    	movw   $0x74,0x24(%rbp)
  4027ee:	b8 ff ff ff ff       	mov    $0xffffffff,%eax
  4027f3:	eb 8b                	jmp    402780 <submitr+0x2e7>
  4027f5:	48 b8 45 72 72 6f 72 	movabs $0x44203a726f727245,%rax
  4027fc:	3a 20 44 
  4027ff:	48 ba 4e 53 20 69 73 	movabs $0x6e7520736920534e,%rdx
  402806:	20 75 6e 
  402809:	48 89 45 00          	mov    %rax,0x0(%rbp)
  40280d:	48 89 55 08          	mov    %rdx,0x8(%rbp)
  402811:	48 b8 61 62 6c 65 20 	movabs $0x206f7420656c6261,%rax
  402818:	74 6f 20 
  40281b:	48 ba 72 65 73 6f 6c 	movabs $0x2065766c6f736572,%rdx
  402822:	76 65 20 
  402825:	48 89 45 10          	mov    %rax,0x10(%rbp)
  402829:	48 89 55 18          	mov    %rdx,0x18(%rbp)
  40282d:	48 b8 73 65 72 76 65 	movabs $0x6120726576726573,%rax
  402834:	72 20 61 
  402837:	48 89 45 20          	mov    %rax,0x20(%rbp)
  40283b:	c7 45 28 64 64 72 65 	movl   $0x65726464,0x28(%rbp)
  402842:	66 c7 45 2c 73 73    	movw   $0x7373,0x2c(%rbp)
  402848:	c6 45 2e 00          	movb   $0x0,0x2e(%rbp)
  40284c:	89 df                	mov    %ebx,%edi
  40284e:	e8 cd e4 ff ff       	callq  400d20 <close@plt>
  402853:	b8 ff ff ff ff       	mov    $0xffffffff,%eax
  402858:	e9 23 ff ff ff       	jmpq   402780 <submitr+0x2e7>
  40285d:	48 b8 45 72 72 6f 72 	movabs $0x55203a726f727245,%rax
  402864:	3a 20 55 
  402867:	48 ba 6e 61 62 6c 65 	movabs $0x6f7420656c62616e,%rdx
  40286e:	20 74 6f 
  402871:	48 89 45 00          	mov    %rax,0x0(%rbp)
  402875:	48 89 55 08          	mov    %rdx,0x8(%rbp)
  402879:	48 b8 20 63 6f 6e 6e 	movabs $0x7463656e6e6f6320,%rax
  402880:	65 63 74 
  402883:	48 ba 20 74 6f 20 74 	movabs $0x20656874206f7420,%rdx
  40288a:	68 65 20 
  40288d:	48 89 45 10          	mov    %rax,0x10(%rbp)
  402891:	48 89 55 18          	mov    %rdx,0x18(%rbp)
  402895:	c7 45 20 73 65 72 76 	movl   $0x76726573,0x20(%rbp)
  40289c:	66 c7 45 24 65 72    	movw   $0x7265,0x24(%rbp)
  4028a2:	c6 45 26 00          	movb   $0x0,0x26(%rbp)
  4028a6:	89 df                	mov    %ebx,%edi
  4028a8:	e8 73 e4 ff ff       	callq  400d20 <close@plt>
  4028ad:	b8 ff ff ff ff       	mov    $0xffffffff,%eax
  4028b2:	e9 c9 fe ff ff       	jmpq   402780 <submitr+0x2e7>
  4028b7:	48 b8 45 72 72 6f 72 	movabs $0x52203a726f727245,%rax
  4028be:	3a 20 52 
  4028c1:	48 ba 65 73 75 6c 74 	movabs $0x747320746c757365,%rdx
  4028c8:	20 73 74 
  4028cb:	48 89 45 00          	mov    %rax,0x0(%rbp)
  4028cf:	48 89 55 08          	mov    %rdx,0x8(%rbp)
  4028d3:	48 b8 72 69 6e 67 20 	movabs $0x6f6f7420676e6972,%rax
  4028da:	74 6f 6f 
  4028dd:	48 ba 20 6c 61 72 67 	movabs $0x202e656772616c20,%rdx
  4028e4:	65 2e 20 
  4028e7:	48 89 45 10          	mov    %rax,0x10(%rbp)
  4028eb:	48 89 55 18          	mov    %rdx,0x18(%rbp)
  4028ef:	48 b8 49 6e 63 72 65 	movabs $0x6573616572636e49,%rax
  4028f6:	61 73 65 
  4028f9:	48 ba 20 53 55 42 4d 	movabs $0x5254494d42555320,%rdx
  402900:	49 54 52 
  402903:	48 89 45 20          	mov    %rax,0x20(%rbp)
  402907:	48 89 55 28          	mov    %rdx,0x28(%rbp)
  40290b:	48 b8 5f 4d 41 58 42 	movabs $0x46554258414d5f,%rax
  402912:	55 46 00 
  402915:	48 89 45 30          	mov    %rax,0x30(%rbp)
  402919:	89 df                	mov    %ebx,%edi
  40291b:	e8 00 e4 ff ff       	callq  400d20 <close@plt>
  402920:	b8 ff ff ff ff       	mov    $0xffffffff,%eax
  402925:	e9 56 fe ff ff       	jmpq   402780 <submitr+0x2e7>
  40292a:	48 b8 45 72 72 6f 72 	movabs $0x52203a726f727245,%rax
  402931:	3a 20 52 
  402934:	48 ba 65 73 75 6c 74 	movabs $0x747320746c757365,%rdx
  40293b:	20 73 74 
  40293e:	48 89 45 00          	mov    %rax,0x0(%rbp)
  402942:	48 89 55 08          	mov    %rdx,0x8(%rbp)
  402946:	48 b8 72 69 6e 67 20 	movabs $0x6e6f6320676e6972,%rax
  40294d:	63 6f 6e 
  402950:	48 ba 74 61 69 6e 73 	movabs $0x6e6120736e696174,%rdx
  402957:	20 61 6e 
  40295a:	48 89 45 10          	mov    %rax,0x10(%rbp)
  40295e:	48 89 55 18          	mov    %rdx,0x18(%rbp)
  402962:	48 b8 20 69 6c 6c 65 	movabs $0x6c6167656c6c6920,%rax
  402969:	67 61 6c 
  40296c:	48 ba 20 6f 72 20 75 	movabs $0x72706e7520726f20,%rdx
  402973:	6e 70 72 
  402976:	48 89 45 20          	mov    %rax,0x20(%rbp)
  40297a:	48 89 55 28          	mov    %rdx,0x28(%rbp)
  40297e:	48 b8 69 6e 74 61 62 	movabs $0x20656c6261746e69,%rax
  402985:	6c 65 20 
  402988:	48 ba 63 68 61 72 61 	movabs $0x6574636172616863,%rdx
  40298f:	63 74 65 
  402992:	48 89 45 30          	mov    %rax,0x30(%rbp)
  402996:	48 89 55 38          	mov    %rdx,0x38(%rbp)
  40299a:	66 c7 45 40 72 2e    	movw   $0x2e72,0x40(%rbp)
  4029a0:	c6 45 42 00          	movb   $0x0,0x42(%rbp)
  4029a4:	89 df                	mov    %ebx,%edi
  4029a6:	e8 75 e3 ff ff       	callq  400d20 <close@plt>
  4029ab:	b8 ff ff ff ff       	mov    $0xffffffff,%eax
  4029b0:	e9 cb fd ff ff       	jmpq   402780 <submitr+0x2e7>
  4029b5:	48 b8 45 72 72 6f 72 	movabs $0x43203a726f727245,%rax
  4029bc:	3a 20 43 
  4029bf:	48 ba 6c 69 65 6e 74 	movabs $0x6e7520746e65696c,%rdx
  4029c6:	20 75 6e 
  4029c9:	48 89 45 00          	mov    %rax,0x0(%rbp)
  4029cd:	48 89 55 08          	mov    %rdx,0x8(%rbp)
  4029d1:	48 b8 61 62 6c 65 20 	movabs $0x206f7420656c6261,%rax
  4029d8:	74 6f 20 
  4029db:	48 ba 77 72 69 74 65 	movabs $0x6f74206574697277,%rdx
  4029e2:	20 74 6f 
  4029e5:	48 89 45 10          	mov    %rax,0x10(%rbp)
  4029e9:	48 89 55 18          	mov    %rdx,0x18(%rbp)
  4029ed:	48 b8 20 74 68 65 20 	movabs $0x7365722065687420,%rax
  4029f4:	72 65 73 
  4029f7:	48 ba 75 6c 74 20 73 	movabs $0x7672657320746c75,%rdx
  4029fe:	65 72 76 
  402a01:	48 89 45 20          	mov    %rax,0x20(%rbp)
  402a05:	48 89 55 28          	mov    %rdx,0x28(%rbp)
  402a09:	66 c7 45 30 65 72    	movw   $0x7265,0x30(%rbp)
  402a0f:	c6 45 32 00          	movb   $0x0,0x32(%rbp)
  402a13:	89 df                	mov    %ebx,%edi
  402a15:	e8 06 e3 ff ff       	callq  400d20 <close@plt>
  402a1a:	b8 ff ff ff ff       	mov    $0xffffffff,%eax
  402a1f:	e9 5c fd ff ff       	jmpq   402780 <submitr+0x2e7>
  402a24:	48 b8 45 72 72 6f 72 	movabs $0x43203a726f727245,%rax
  402a2b:	3a 20 43 
  402a2e:	48 ba 6c 69 65 6e 74 	movabs $0x6e7520746e65696c,%rdx
  402a35:	20 75 6e 
  402a38:	48 89 45 00          	mov    %rax,0x0(%rbp)
  402a3c:	48 89 55 08          	mov    %rdx,0x8(%rbp)
  402a40:	48 b8 61 62 6c 65 20 	movabs $0x206f7420656c6261,%rax
  402a47:	74 6f 20 
  402a4a:	48 ba 72 65 61 64 20 	movabs $0x7269662064616572,%rdx
  402a51:	66 69 72 
  402a54:	48 89 45 10          	mov    %rax,0x10(%rbp)
  402a58:	48 89 55 18          	mov    %rdx,0x18(%rbp)
  402a5c:	48 b8 73 74 20 68 65 	movabs $0x6564616568207473,%rax
  402a63:	61 64 65 
  402a66:	48 ba 72 20 66 72 6f 	movabs $0x72206d6f72662072,%rdx
  402a6d:	6d 20 72 
  402a70:	48 89 45 20          	mov    %rax,0x20(%rbp)
  402a74:	48 89 55 28          	mov    %rdx,0x28(%rbp)
  402a78:	48 b8 65 73 75 6c 74 	movabs $0x657320746c757365,%rax
  402a7f:	20 73 65 
  402a82:	48 89 45 30          	mov    %rax,0x30(%rbp)
  402a86:	c7 45 38 72 76 65 72 	movl   $0x72657672,0x38(%rbp)
  402a8d:	c6 45 3c 00          	movb   $0x0,0x3c(%rbp)
  402a91:	89 df                	mov    %ebx,%edi
  402a93:	e8 88 e2 ff ff       	callq  400d20 <close@plt>
  402a98:	b8 ff ff ff ff       	mov    $0xffffffff,%eax
  402a9d:	e9 de fc ff ff       	jmpq   402780 <submitr+0x2e7>
  402aa2:	48 8d b4 24 50 20 00 	lea    0x2050(%rsp),%rsi
  402aa9:	00 
  402aaa:	48 8d 7c 24 40       	lea    0x40(%rsp),%rdi
  402aaf:	ba 00 20 00 00       	mov    $0x2000,%edx
  402ab4:	e8 29 f8 ff ff       	callq  4022e2 <rio_readlineb>
  402ab9:	48 85 c0             	test   %rax,%rax
  402abc:	0f 8e 96 00 00 00    	jle    402b58 <submitr+0x6bf>
  402ac2:	44 8b 44 24 2c       	mov    0x2c(%rsp),%r8d
  402ac7:	41 81 f8 c8 00 00 00 	cmp    $0xc8,%r8d
  402ace:	0f 85 08 01 00 00    	jne    402bdc <submitr+0x743>
  402ad4:	48 8d b4 24 50 20 00 	lea    0x2050(%rsp),%rsi
  402adb:	00 
  402adc:	48 89 ef             	mov    %rbp,%rdi
  402adf:	e8 cc e1 ff ff       	callq  400cb0 <strcpy@plt>
  402ae4:	89 df                	mov    %ebx,%edi
  402ae6:	e8 35 e2 ff ff       	callq  400d20 <close@plt>
  402aeb:	b9 04 00 00 00       	mov    $0x4,%ecx
  402af0:	48 8d 3d 49 0c 00 00 	lea    0xc49(%rip),%rdi        # 403740 <trans_char+0xc0>
  402af7:	48 89 ee             	mov    %rbp,%rsi
  402afa:	f3 a6                	repz cmpsb %es:(%rdi),%ds:(%rsi)
  402afc:	0f 97 c0             	seta   %al
  402aff:	1c 00                	sbb    $0x0,%al
  402b01:	0f be c0             	movsbl %al,%eax
  402b04:	85 c0                	test   %eax,%eax
  402b06:	0f 84 74 fc ff ff    	je     402780 <submitr+0x2e7>
  402b0c:	b9 05 00 00 00       	mov    $0x5,%ecx
  402b11:	48 8d 3d 2c 0c 00 00 	lea    0xc2c(%rip),%rdi        # 403744 <trans_char+0xc4>
  402b18:	48 89 ee             	mov    %rbp,%rsi
  402b1b:	f3 a6                	repz cmpsb %es:(%rdi),%ds:(%rsi)
  402b1d:	0f 97 c0             	seta   %al
  402b20:	1c 00                	sbb    $0x0,%al
  402b22:	0f be c0             	movsbl %al,%eax
  402b25:	85 c0                	test   %eax,%eax
  402b27:	0f 84 53 fc ff ff    	je     402780 <submitr+0x2e7>
  402b2d:	b9 03 00 00 00       	mov    $0x3,%ecx
  402b32:	48 8d 3d 10 0c 00 00 	lea    0xc10(%rip),%rdi        # 403749 <trans_char+0xc9>
  402b39:	48 89 ee             	mov    %rbp,%rsi
  402b3c:	f3 a6                	repz cmpsb %es:(%rdi),%ds:(%rsi)
  402b3e:	0f 97 c0             	seta   %al
  402b41:	1c 00                	sbb    $0x0,%al
  402b43:	0f be c0             	movsbl %al,%eax
  402b46:	85 c0                	test   %eax,%eax
  402b48:	0f 84 32 fc ff ff    	je     402780 <submitr+0x2e7>
  402b4e:	b8 ff ff ff ff       	mov    $0xffffffff,%eax
  402b53:	e9 28 fc ff ff       	jmpq   402780 <submitr+0x2e7>
  402b58:	48 b8 45 72 72 6f 72 	movabs $0x43203a726f727245,%rax
  402b5f:	3a 20 43 
  402b62:	48 ba 6c 69 65 6e 74 	movabs $0x6e7520746e65696c,%rdx
  402b69:	20 75 6e 
  402b6c:	48 89 45 00          	mov    %rax,0x0(%rbp)
  402b70:	48 89 55 08          	mov    %rdx,0x8(%rbp)
  402b74:	48 b8 61 62 6c 65 20 	movabs $0x206f7420656c6261,%rax
  402b7b:	74 6f 20 
  402b7e:	48 ba 72 65 61 64 20 	movabs $0x6174732064616572,%rdx
  402b85:	73 74 61 
  402b88:	48 89 45 10          	mov    %rax,0x10(%rbp)
  402b8c:	48 89 55 18          	mov    %rdx,0x18(%rbp)
  402b90:	48 b8 74 75 73 20 6d 	movabs $0x7373656d20737574,%rax
  402b97:	65 73 73 
  402b9a:	48 ba 61 67 65 20 66 	movabs $0x6d6f726620656761,%rdx
  402ba1:	72 6f 6d 
  402ba4:	48 89 45 20          	mov    %rax,0x20(%rbp)
  402ba8:	48 89 55 28          	mov    %rdx,0x28(%rbp)
  402bac:	48 b8 20 72 65 73 75 	movabs $0x20746c7573657220,%rax
  402bb3:	6c 74 20 
  402bb6:	48 89 45 30          	mov    %rax,0x30(%rbp)
  402bba:	c7 45 38 73 65 72 76 	movl   $0x76726573,0x38(%rbp)
  402bc1:	66 c7 45 3c 65 72    	movw   $0x7265,0x3c(%rbp)
  402bc7:	c6 45 3e 00          	movb   $0x0,0x3e(%rbp)
  402bcb:	89 df                	mov    %ebx,%edi
  402bcd:	e8 4e e1 ff ff       	callq  400d20 <close@plt>
  402bd2:	b8 ff ff ff ff       	mov    $0xffffffff,%eax
  402bd7:	e9 a4 fb ff ff       	jmpq   402780 <submitr+0x2e7>
  402bdc:	4c 8d 8c 24 50 80 00 	lea    0x8050(%rsp),%r9
  402be3:	00 
  402be4:	48 8d 0d 0d 0b 00 00 	lea    0xb0d(%rip),%rcx        # 4036f8 <trans_char+0x78>
  402beb:	48 c7 c2 ff ff ff ff 	mov    $0xffffffffffffffff,%rdx
  402bf2:	be 01 00 00 00       	mov    $0x1,%esi
  402bf7:	48 89 ef             	mov    %rbp,%rdi
  402bfa:	b8 00 00 00 00       	mov    $0x0,%eax
  402bff:	e8 5c e2 ff ff       	callq  400e60 <__sprintf_chk@plt>
  402c04:	89 df                	mov    %ebx,%edi
  402c06:	e8 15 e1 ff ff       	callq  400d20 <close@plt>
  402c0b:	b8 ff ff ff ff       	mov    $0xffffffff,%eax
  402c10:	e9 6b fb ff ff       	jmpq   402780 <submitr+0x2e7>
  402c15:	e8 c6 e0 ff ff       	callq  400ce0 <__stack_chk_fail@plt>

0000000000402c1a <init_timeout>:
  402c1a:	85 ff                	test   %edi,%edi
  402c1c:	74 28                	je     402c46 <init_timeout+0x2c>
  402c1e:	53                   	push   %rbx
  402c1f:	89 fb                	mov    %edi,%ebx
  402c21:	85 ff                	test   %edi,%edi
  402c23:	78 1a                	js     402c3f <init_timeout+0x25>
  402c25:	48 8d 35 9d f5 ff ff 	lea    -0xa63(%rip),%rsi        # 4021c9 <sigalrm_handler>
  402c2c:	bf 0e 00 00 00       	mov    $0xe,%edi
  402c31:	e8 0a e1 ff ff       	callq  400d40 <signal@plt>
  402c36:	89 df                	mov    %ebx,%edi
  402c38:	e8 d3 e0 ff ff       	callq  400d10 <alarm@plt>
  402c3d:	5b                   	pop    %rbx
  402c3e:	c3                   	retq   
  402c3f:	bb 00 00 00 00       	mov    $0x0,%ebx
  402c44:	eb df                	jmp    402c25 <init_timeout+0xb>
  402c46:	f3 c3                	repz retq 

0000000000402c48 <init_driver>:
  402c48:	41 54                	push   %r12
  402c4a:	55                   	push   %rbp
  402c4b:	53                   	push   %rbx
  402c4c:	48 83 ec 20          	sub    $0x20,%rsp
  402c50:	49 89 fc             	mov    %rdi,%r12
  402c53:	64 48 8b 04 25 28 00 	mov    %fs:0x28,%rax
  402c5a:	00 00 
  402c5c:	48 89 44 24 18       	mov    %rax,0x18(%rsp)
  402c61:	31 c0                	xor    %eax,%eax
  402c63:	be 01 00 00 00       	mov    $0x1,%esi
  402c68:	bf 0d 00 00 00       	mov    $0xd,%edi
  402c6d:	e8 ce e0 ff ff       	callq  400d40 <signal@plt>
  402c72:	be 01 00 00 00       	mov    $0x1,%esi
  402c77:	bf 1d 00 00 00       	mov    $0x1d,%edi
  402c7c:	e8 bf e0 ff ff       	callq  400d40 <signal@plt>
  402c81:	be 01 00 00 00       	mov    $0x1,%esi
  402c86:	bf 1d 00 00 00       	mov    $0x1d,%edi
  402c8b:	e8 b0 e0 ff ff       	callq  400d40 <signal@plt>
  402c90:	ba 00 00 00 00       	mov    $0x0,%edx
  402c95:	be 01 00 00 00       	mov    $0x1,%esi
  402c9a:	bf 02 00 00 00       	mov    $0x2,%edi
  402c9f:	e8 cc e1 ff ff       	callq  400e70 <socket@plt>
  402ca4:	85 c0                	test   %eax,%eax
  402ca6:	0f 88 a3 00 00 00    	js     402d4f <init_driver+0x107>
  402cac:	89 c3                	mov    %eax,%ebx
  402cae:	48 8d 3d 97 0a 00 00 	lea    0xa97(%rip),%rdi        # 40374c <trans_char+0xcc>
  402cb5:	e8 96 e0 ff ff       	callq  400d50 <gethostbyname@plt>
  402cba:	48 85 c0             	test   %rax,%rax
  402cbd:	0f 84 df 00 00 00    	je     402da2 <init_driver+0x15a>
  402cc3:	48 89 e5             	mov    %rsp,%rbp
  402cc6:	48 c7 44 24 02 00 00 	movq   $0x0,0x2(%rsp)
  402ccd:	00 00 
  402ccf:	c7 45 0a 00 00 00 00 	movl   $0x0,0xa(%rbp)
  402cd6:	66 c7 45 0e 00 00    	movw   $0x0,0xe(%rbp)
  402cdc:	66 c7 04 24 02 00    	movw   $0x2,(%rsp)
  402ce2:	48 63 50 14          	movslq 0x14(%rax),%rdx
  402ce6:	48 8b 40 18          	mov    0x18(%rax),%rax
  402cea:	48 8b 30             	mov    (%rax),%rsi
  402ced:	48 8d 7d 04          	lea    0x4(%rbp),%rdi
  402cf1:	b9 0c 00 00 00       	mov    $0xc,%ecx
  402cf6:	e8 65 e0 ff ff       	callq  400d60 <__memmove_chk@plt>
  402cfb:	66 c7 44 24 02 3c 9a 	movw   $0x9a3c,0x2(%rsp)
  402d02:	ba 10 00 00 00       	mov    $0x10,%edx
  402d07:	48 89 ee             	mov    %rbp,%rsi
  402d0a:	89 df                	mov    %ebx,%edi
  402d0c:	e8 2f e1 ff ff       	callq  400e40 <connect@plt>
  402d11:	85 c0                	test   %eax,%eax
  402d13:	0f 88 fb 00 00 00    	js     402e14 <init_driver+0x1cc>
  402d19:	89 df                	mov    %ebx,%edi
  402d1b:	e8 00 e0 ff ff       	callq  400d20 <close@plt>
  402d20:	66 41 c7 04 24 4f 4b 	movw   $0x4b4f,(%r12)
  402d27:	41 c6 44 24 02 00    	movb   $0x0,0x2(%r12)
  402d2d:	b8 00 00 00 00       	mov    $0x0,%eax
  402d32:	48 8b 4c 24 18       	mov    0x18(%rsp),%rcx
  402d37:	64 48 33 0c 25 28 00 	xor    %fs:0x28,%rcx
  402d3e:	00 00 
  402d40:	0f 85 28 01 00 00    	jne    402e6e <init_driver+0x226>
  402d46:	48 83 c4 20          	add    $0x20,%rsp
  402d4a:	5b                   	pop    %rbx
  402d4b:	5d                   	pop    %rbp
  402d4c:	41 5c                	pop    %r12
  402d4e:	c3                   	retq   
  402d4f:	48 b8 45 72 72 6f 72 	movabs $0x43203a726f727245,%rax
  402d56:	3a 20 43 
  402d59:	48 ba 6c 69 65 6e 74 	movabs $0x6e7520746e65696c,%rdx
  402d60:	20 75 6e 
  402d63:	49 89 04 24          	mov    %rax,(%r12)
  402d67:	49 89 54 24 08       	mov    %rdx,0x8(%r12)
  402d6c:	48 b8 61 62 6c 65 20 	movabs $0x206f7420656c6261,%rax
  402d73:	74 6f 20 
  402d76:	48 ba 63 72 65 61 74 	movabs $0x7320657461657263,%rdx
  402d7d:	65 20 73 
  402d80:	49 89 44 24 10       	mov    %rax,0x10(%r12)
  402d85:	49 89 54 24 18       	mov    %rdx,0x18(%r12)
  402d8a:	41 c7 44 24 20 6f 63 	movl   $0x656b636f,0x20(%r12)
  402d91:	6b 65 
  402d93:	66 41 c7 44 24 24 74 	movw   $0x74,0x24(%r12)
  402d9a:	00 
  402d9b:	b8 ff ff ff ff       	mov    $0xffffffff,%eax
  402da0:	eb 90                	jmp    402d32 <init_driver+0xea>
  402da2:	48 b8 45 72 72 6f 72 	movabs $0x44203a726f727245,%rax
  402da9:	3a 20 44 
  402dac:	48 ba 4e 53 20 69 73 	movabs $0x6e7520736920534e,%rdx
  402db3:	20 75 6e 
  402db6:	49 89 04 24          	mov    %rax,(%r12)
  402dba:	49 89 54 24 08       	mov    %rdx,0x8(%r12)
  402dbf:	48 b8 61 62 6c 65 20 	movabs $0x206f7420656c6261,%rax
  402dc6:	74 6f 20 
  402dc9:	48 ba 72 65 73 6f 6c 	movabs $0x2065766c6f736572,%rdx
  402dd0:	76 65 20 
  402dd3:	49 89 44 24 10       	mov    %rax,0x10(%r12)
  402dd8:	49 89 54 24 18       	mov    %rdx,0x18(%r12)
  402ddd:	48 b8 73 65 72 76 65 	movabs $0x6120726576726573,%rax
  402de4:	72 20 61 
  402de7:	49 89 44 24 20       	mov    %rax,0x20(%r12)
  402dec:	41 c7 44 24 28 64 64 	movl   $0x65726464,0x28(%r12)
  402df3:	72 65 
  402df5:	66 41 c7 44 24 2c 73 	movw   $0x7373,0x2c(%r12)
  402dfc:	73 
  402dfd:	41 c6 44 24 2e 00    	movb   $0x0,0x2e(%r12)
  402e03:	89 df                	mov    %ebx,%edi
  402e05:	e8 16 df ff ff       	callq  400d20 <close@plt>
  402e0a:	b8 ff ff ff ff       	mov    $0xffffffff,%eax
  402e0f:	e9 1e ff ff ff       	jmpq   402d32 <init_driver+0xea>
  402e14:	48 b8 45 72 72 6f 72 	movabs $0x55203a726f727245,%rax
  402e1b:	3a 20 55 
  402e1e:	48 ba 6e 61 62 6c 65 	movabs $0x6f7420656c62616e,%rdx
  402e25:	20 74 6f 
  402e28:	49 89 04 24          	mov    %rax,(%r12)
  402e2c:	49 89 54 24 08       	mov    %rdx,0x8(%r12)
  402e31:	48 b8 20 63 6f 6e 6e 	movabs $0x7463656e6e6f6320,%rax
  402e38:	65 63 74 
  402e3b:	48 ba 20 74 6f 20 73 	movabs $0x76726573206f7420,%rdx
  402e42:	65 72 76 
  402e45:	49 89 44 24 10       	mov    %rax,0x10(%r12)
  402e4a:	49 89 54 24 18       	mov    %rdx,0x18(%r12)
  402e4f:	66 41 c7 44 24 20 65 	movw   $0x7265,0x20(%r12)
  402e56:	72 
  402e57:	41 c6 44 24 22 00    	movb   $0x0,0x22(%r12)
  402e5d:	89 df                	mov    %ebx,%edi
  402e5f:	e8 bc de ff ff       	callq  400d20 <close@plt>
  402e64:	b8 ff ff ff ff       	mov    $0xffffffff,%eax
  402e69:	e9 c4 fe ff ff       	jmpq   402d32 <init_driver+0xea>
  402e6e:	e8 6d de ff ff       	callq  400ce0 <__stack_chk_fail@plt>

0000000000402e73 <driver_post>:
  402e73:	53                   	push   %rbx
  402e74:	4c 89 cb             	mov    %r9,%rbx
  402e77:	45 85 c0             	test   %r8d,%r8d
  402e7a:	75 18                	jne    402e94 <driver_post+0x21>
  402e7c:	48 85 ff             	test   %rdi,%rdi
  402e7f:	74 05                	je     402e86 <driver_post+0x13>
  402e81:	80 3f 00             	cmpb   $0x0,(%rdi)
  402e84:	75 37                	jne    402ebd <driver_post+0x4a>
  402e86:	66 c7 03 4f 4b       	movw   $0x4b4f,(%rbx)
  402e8b:	c6 43 02 00          	movb   $0x0,0x2(%rbx)
  402e8f:	44 89 c0             	mov    %r8d,%eax
  402e92:	5b                   	pop    %rbx
  402e93:	c3                   	retq   
  402e94:	48 89 ca             	mov    %rcx,%rdx
  402e97:	48 8d 35 ba 08 00 00 	lea    0x8ba(%rip),%rsi        # 403758 <trans_char+0xd8>
  402e9e:	bf 01 00 00 00       	mov    $0x1,%edi
  402ea3:	b8 00 00 00 00       	mov    $0x0,%eax
  402ea8:	e8 33 df ff ff       	callq  400de0 <__printf_chk@plt>
  402ead:	66 c7 03 4f 4b       	movw   $0x4b4f,(%rbx)
  402eb2:	c6 43 02 00          	movb   $0x0,0x2(%rbx)
  402eb6:	b8 00 00 00 00       	mov    $0x0,%eax
  402ebb:	eb d5                	jmp    402e92 <driver_post+0x1f>
  402ebd:	48 83 ec 08          	sub    $0x8,%rsp
  402ec1:	41 51                	push   %r9
  402ec3:	49 89 c9             	mov    %rcx,%r9
  402ec6:	49 89 d0             	mov    %rdx,%r8
  402ec9:	48 89 f9             	mov    %rdi,%rcx
  402ecc:	48 89 f2             	mov    %rsi,%rdx
  402ecf:	be 9a 3c 00 00       	mov    $0x3c9a,%esi
  402ed4:	48 8d 3d 71 08 00 00 	lea    0x871(%rip),%rdi        # 40374c <trans_char+0xcc>
  402edb:	e8 b9 f5 ff ff       	callq  402499 <submitr>
  402ee0:	48 83 c4 10          	add    $0x10,%rsp
  402ee4:	eb ac                	jmp    402e92 <driver_post+0x1f>

0000000000402ee6 <check>:
  402ee6:	89 f8                	mov    %edi,%eax
  402ee8:	c1 e8 1c             	shr    $0x1c,%eax
  402eeb:	85 c0                	test   %eax,%eax
  402eed:	74 1d                	je     402f0c <check+0x26>
  402eef:	b9 00 00 00 00       	mov    $0x0,%ecx
  402ef4:	83 f9 1f             	cmp    $0x1f,%ecx
  402ef7:	7f 0d                	jg     402f06 <check+0x20>
  402ef9:	89 f8                	mov    %edi,%eax
  402efb:	d3 e8                	shr    %cl,%eax
  402efd:	3c 0a                	cmp    $0xa,%al
  402eff:	74 11                	je     402f12 <check+0x2c>
  402f01:	83 c1 08             	add    $0x8,%ecx
  402f04:	eb ee                	jmp    402ef4 <check+0xe>
  402f06:	b8 01 00 00 00       	mov    $0x1,%eax
  402f0b:	c3                   	retq   
  402f0c:	b8 00 00 00 00       	mov    $0x0,%eax
  402f11:	c3                   	retq   
  402f12:	b8 00 00 00 00       	mov    $0x0,%eax
  402f17:	c3                   	retq   

0000000000402f18 <gencookie>:
  402f18:	53                   	push   %rbx
  402f19:	83 c7 01             	add    $0x1,%edi
  402f1c:	e8 6f dd ff ff       	callq  400c90 <srandom@plt>
  402f21:	e8 7a de ff ff       	callq  400da0 <random@plt>
  402f26:	89 c3                	mov    %eax,%ebx
  402f28:	89 c7                	mov    %eax,%edi
  402f2a:	e8 b7 ff ff ff       	callq  402ee6 <check>
  402f2f:	85 c0                	test   %eax,%eax
  402f31:	74 ee                	je     402f21 <gencookie+0x9>
  402f33:	89 d8                	mov    %ebx,%eax
  402f35:	5b                   	pop    %rbx
  402f36:	c3                   	retq   
  402f37:	66 0f 1f 84 00 00 00 	nopw   0x0(%rax,%rax,1)
  402f3e:	00 00 

0000000000402f40 <__libc_csu_init>:
  402f40:	41 57                	push   %r15
  402f42:	41 56                	push   %r14
  402f44:	49 89 d7             	mov    %rdx,%r15
  402f47:	41 55                	push   %r13
  402f49:	41 54                	push   %r12
  402f4b:	4c 8d 25 be 1e 20 00 	lea    0x201ebe(%rip),%r12        # 604e10 <__frame_dummy_init_array_entry>
  402f52:	55                   	push   %rbp
  402f53:	48 8d 2d be 1e 20 00 	lea    0x201ebe(%rip),%rbp        # 604e18 <__do_global_dtors_aux_fini_array_entry>
  402f5a:	53                   	push   %rbx
  402f5b:	41 89 fd             	mov    %edi,%r13d
  402f5e:	49 89 f6             	mov    %rsi,%r14
  402f61:	4c 29 e5             	sub    %r12,%rbp
  402f64:	48 83 ec 08          	sub    $0x8,%rsp
  402f68:	48 c1 fd 03          	sar    $0x3,%rbp
  402f6c:	e8 d7 dc ff ff       	callq  400c48 <_init>
  402f71:	48 85 ed             	test   %rbp,%rbp
  402f74:	74 20                	je     402f96 <__libc_csu_init+0x56>
  402f76:	31 db                	xor    %ebx,%ebx
  402f78:	0f 1f 84 00 00 00 00 	nopl   0x0(%rax,%rax,1)
  402f7f:	00 
  402f80:	4c 89 fa             	mov    %r15,%rdx
  402f83:	4c 89 f6             	mov    %r14,%rsi
  402f86:	44 89 ef             	mov    %r13d,%edi
  402f89:	41 ff 14 dc          	callq  *(%r12,%rbx,8)
  402f8d:	48 83 c3 01          	add    $0x1,%rbx
  402f91:	48 39 dd             	cmp    %rbx,%rbp
  402f94:	75 ea                	jne    402f80 <__libc_csu_init+0x40>
  402f96:	48 83 c4 08          	add    $0x8,%rsp
  402f9a:	5b                   	pop    %rbx
  402f9b:	5d                   	pop    %rbp
  402f9c:	41 5c                	pop    %r12
  402f9e:	41 5d                	pop    %r13
  402fa0:	41 5e                	pop    %r14
  402fa2:	41 5f                	pop    %r15
  402fa4:	c3                   	retq   
  402fa5:	90                   	nop
  402fa6:	66 2e 0f 1f 84 00 00 	nopw   %cs:0x0(%rax,%rax,1)
  402fad:	00 00 00 

0000000000402fb0 <__libc_csu_fini>:
  402fb0:	f3 c3                	repz retq 

Disassembly of section .fini:

0000000000402fb4 <_fini>:
  402fb4:	48 83 ec 08          	sub    $0x8,%rsp
  402fb8:	48 83 c4 08          	add    $0x8,%rsp
  402fbc:	c3                   	retq   
